 scrypt

 Timestamp is 5ac97196 (Sun Apr  8 09:34:14 2018)

 Preferred load address is 0000000180000000

 Start         Length     Name                   Class
 0001:00000000 0001c660H .text$mn                CODE
 0001:0001c660 00000020H .text$mn$00             CODE
 0001:0001c680 00000570H .text$x                 CODE
 0002:00000000 000003b8H .idata$5                DATA
 0002:000003b8 00000010H .00cfg                  DATA
 0002:000003c8 00000008H .CRT$XCA                DATA
 0002:000003d0 00000008H .CRT$XCU                DATA
 0002:000003d8 00000008H .CRT$XCZ                DATA
 0002:000003e0 00000008H .CRT$XIA                DATA
 0002:000003e8 00000018H .CRT$XIC                DATA
 0002:00000400 00000008H .CRT$XIZ                DATA
 0002:00000408 00000008H .CRT$XPA                DATA
 0002:00000410 00000010H .CRT$XPX                DATA
 0002:00000420 00000008H .CRT$XPXA               DATA
 0002:00000428 00000008H .CRT$XPZ                DATA
 0002:00000430 00000008H .CRT$XTA                DATA
 0002:00000438 00000008H .CRT$XTZ                DATA
 0002:00000440 00009298H .rdata                  DATA
 0002:000096d8 00000404H .rdata$r                DATA
 0002:00009adc 00000364H .rdata$zzzdbg           DATA
 0002:00009e40 00000008H .rtc$IAA                DATA
 0002:00009e48 00000008H .rtc$IZZ                DATA
 0002:00009e50 00000008H .rtc$TAA                DATA
 0002:00009e58 00000008H .rtc$TZZ                DATA
 0002:00009e60 00001d40H .xdata                  DATA
 0002:0000bba0 00000250H .xdata$x                DATA
 0002:0000bdf0 00000050H .edata                  DATA
 0002:0000be40 00000028H .idata$2                DATA
 0002:0000be68 00000018H .idata$3                DATA
 0002:0000be80 000003b8H .idata$4                DATA
 0002:0000c238 00001098H .idata$6                DATA
 0003:00000000 00000a18H .data                   DATA
 0003:00000a18 00000148H .data$r                 DATA
 0003:00000b60 000011d0H .bss                    DATA
 0004:00000000 00001a04H .pdata                  DATA
 0005:00000000 00000084H .gfids$x                DATA
 0005:00000084 00000058H .gfids$y                DATA
 0006:00000000 00000060H .rsrc$01                DATA
 0006:00000060 00000180H .rsrc$02                DATA

  Address         Publics by Value              Rva+Base               Lib:Object

 0000:00000000       __guard_iat_table          0000000000000000     <absolute>
 0000:00000000       __dynamic_value_reloc_table 0000000000000000     <absolute>
 0000:00000000       __guard_iat_count          0000000000000000     <absolute>
 0000:00000000       __guard_longjmp_table      0000000000000000     <absolute>
 0000:00000000       __guard_longjmp_count      0000000000000000     <absolute>
 0000:00000000       __guard_fids_count         0000000000000000     <absolute>
 0000:00000000       ___safe_se_handler_table   0000000000000000     <absolute>
 0000:00000000       ___safe_se_handler_count   0000000000000000     <absolute>
 0000:00000000       __guard_fids_table         0000000000000000     <absolute>
 0000:00000100       __guard_flags              0000000000000100     <absolute>
 0000:00000000       __ImageBase                0000000180000000     <linker-defined>
 0001:00000000       ?Error@Nan@@YA?AV?$Local@VValue@v8@@@v8@@PEBD@Z 0000000180001000 f i scrypt_common.obj
 0001:000000a0       ??1HandleScope@Nan@@QEAA@XZ 00000001800010a0 f i scrypt_params_async.obj
 0001:000000a0       ??1EscapableHandleScope@Nan@@QEAA@XZ 00000001800010a0 f i scrypt_common.obj
 0001:000003a0       ?ScryptError@NodeScrypt@@YA?AV?$Local@VValue@v8@@@v8@@I@Z 00000001800013a0 f   scrypt_common.obj
 0001:00000410       ??1?$basic_string@DU?$char_traits@D@std@@V?$allocator@D@2@@std@@QEAA@XZ 0000000180001410 f i scrypt_common.obj
 0001:000004a0       ??0?$basic_string@DU?$char_traits@D@std@@V?$allocator@D@2@@std@@QEAA@$$QEAV01@@Z 00000001800014a0 f i scrypt_common.obj
 0001:00000540       ?assign@?$basic_string@DU?$char_traits@D@std@@V?$allocator@D@2@@std@@QEAAAEAV12@PEBD_K@Z 0000000180001540 f i scrypt_common.obj
 0001:00000670       ?assign@?$basic_string@DU?$char_traits@D@std@@V?$allocator@D@2@@std@@QEAAAEAV12@AEBV12@_K1@Z 0000000180001670 f i scrypt_common.obj
 0001:000007a0       ?append@?$basic_string@DU?$char_traits@D@std@@V?$allocator@D@2@@std@@QEAAAEAV12@AEBV12@_K1@Z 00000001800017a0 f i scrypt_common.obj
 0001:000008a0       ?erase@?$basic_string@DU?$char_traits@D@std@@V?$allocator@D@2@@std@@QEAAAEAV12@_K0@Z 00000001800018a0 f i scrypt_common.obj
 0001:00000940       ?_Copy@?$basic_string@DU?$char_traits@D@std@@V?$allocator@D@2@@std@@QEAAX_K0@Z 0000000180001940 f i scrypt_common.obj
 0001:00000ac0       ??$?HDU?$char_traits@D@std@@V?$allocator@D@1@@std@@YA?AV?$basic_string@DU?$char_traits@D@std@@V?$allocator@D@2@@0@PEBD$$QEAV10@@Z 0000000180001ac0 f i scrypt_common.obj
 0001:00000b00       ?insert@?$basic_string@DU?$char_traits@D@std@@V?$allocator@D@2@@std@@QEAAAEAV12@_KPEBD0@Z 0000000180001b00 f i scrypt_common.obj
 0001:00000c80       ?insert@?$basic_string@DU?$char_traits@D@std@@V?$allocator@D@2@@std@@QEAAAEAV12@_KAEBV12@00@Z 0000000180001c80 f i scrypt_common.obj
 0001:00000e20       ?convert@?$ToFactory@VInteger@v8@@@imp@Nan@@SA?AV?$MaybeLocal@VInteger@v8@@@v8@@V?$Local@VValue@v8@@@5@@Z 0000000180001e20 f i scrypt_params_async.obj
 0001:00000ea0       ?Call@Callback@Nan@@QEBA?AV?$Local@VValue@v8@@@v8@@HQEAV34@@Z 0000000180001ea0 f i scrypt_params_async.obj
 0001:00000f50       ?Call@Callback@Nan@@QEBA?AV?$MaybeLocal@VValue@v8@@@v8@@HQEAV?$Local@VValue@v8@@@4@PEAVAsyncResource@2@@Z 0000000180001f50 f i scrypt_params_async.obj
 0001:00001010       ?Call_@Callback@Nan@@AEBA?AV?$Local@VValue@v8@@@v8@@PEAVIsolate@4@V?$Local@VObject@v8@@@4@HQEAV34@@Z 0000000180002010 f i scrypt_params_async.obj
 0001:000010d0       ??0AsyncWorker@Nan@@QEAA@PEAVCallback@1@PEBD@Z 00000001800020d0 f i scrypt_params_async.obj
 0001:000011c0       ??1AsyncWorker@Nan@@UEAA@XZ 00000001800021c0 f i scrypt_params_async.obj
 0001:00001290       ?WorkComplete@AsyncWorker@Nan@@UEAAXXZ 0000000180002290 f i scrypt_params_async.obj
 0001:00001330       ?Destroy@AsyncWorker@Nan@@UEAAXXZ 0000000180002330 f i scrypt_params_async.obj
 0001:00001350       ?HandleOKCallback@AsyncWorker@Nan@@MEAAXXZ 0000000180002350 f i scrypt_params_async.obj
 0001:000013a0       ?HandleErrorCallback@AsyncWorker@Nan@@MEAAXXZ 00000001800023a0 f i scrypt_params_async.obj
 0001:00001450       ??_EAsyncWorker@Nan@@UEAAPEAXI@Z 0000000180002450 f i * CIL library *:* CIL module *
 0001:00001450       ??_GAsyncWorker@Nan@@UEAAPEAXI@Z 0000000180002450 f i scrypt_params_async.obj
 0001:00001490       ??1?$Persistent@VObject@v8@@V?$NonCopyablePersistentTraits@VObject@v8@@@2@@Nan@@QEAA@XZ 0000000180002490 f i scrypt_params_async.obj
 0001:000014b0       ?AsyncExecute@Nan@@YAXPEAUuv_work_s@@@Z 00000001800024b0 f i scrypt_params_async.obj
 0001:000014c0       ?AsyncExecuteComplete@Nan@@YAXPEAUuv_work_s@@@Z 00000001800024c0 f i scrypt_params_async.obj
 0001:00001500       ?HandleErrorCallback@ScryptAsyncWorker@@UEAAXXZ 0000000180002500 f i scrypt_params_async.obj
 0001:00001570       ?WorkComplete@ScryptAsyncWorker@@UEAAXXZ 0000000180002570 f i scrypt_params_async.obj
 0001:00001660       ??1ScryptAsyncWorker@@UEAA@XZ 0000000180002660 f i scrypt_params_async.obj
 0001:00001670       ??0ScryptParamsAsyncWorker@@QEAA@AEBV?$FunctionCallbackInfo@VValue@v8@@@Nan@@@Z 0000000180002670 f i scrypt_params_async.obj
 0001:000017d0       ??_GScryptParamsAsyncWorker@@UEAAPEAXI@Z 00000001800027d0 f i scrypt_params_async.obj
 0001:000017d0       ??_EScryptParamsAsyncWorker@@UEAAPEAXI@Z 00000001800027d0 f i * CIL library *:* CIL module *
 0001:000017d0       ??_EScryptKDFAsyncWorker@@UEAAPEAXI@Z 00000001800027d0 f i * CIL library *:* CIL module *
 0001:000017d0       ??_GScryptKDFAsyncWorker@@UEAAPEAXI@Z 00000001800027d0 f i scrypt_kdf_async.obj
 0001:00001810       ?Execute@ScryptParamsAsyncWorker@@UEAAXXZ 0000000180002810 f   scrypt_params_async.obj
 0001:000018f0       ?HandleOKCallback@ScryptParamsAsyncWorker@@UEAAXXZ 00000001800028f0 f   scrypt_params_async.obj
 0001:00001af0       ?params@@YAXAEBV?$FunctionCallbackInfo@VValue@v8@@@Nan@@@Z 0000000180002af0 f   scrypt_params_async.obj
 0001:00001b50       ?paramsSync@@YAXAEBV?$FunctionCallbackInfo@VValue@v8@@@Nan@@@Z 0000000180002b50 f   scrypt_params_sync.obj
 0001:00001e80       ?GetFromPersistent@AsyncWorker@Nan@@QEBA?AV?$Local@VValue@v8@@@v8@@PEBD@Z 0000000180002e80 f i scrypt_kdf_async.obj
 0001:00001f60       ??0Params@NodeScrypt@@QEAA@AEBV?$Local@VObject@v8@@@v8@@@Z 0000000180002f60 f i scrypt_kdf_async.obj
 0001:00002080       ??0ScryptKDFAsyncWorker@@QEAA@AEBV?$FunctionCallbackInfo@VValue@v8@@@Nan@@@Z 0000000180003080 f i scrypt_kdf_async.obj
 0001:00002430       ?Execute@ScryptKDFAsyncWorker@@UEAAXXZ 0000000180003430 f   scrypt_kdf_async.obj
 0001:00002490       ?HandleOKCallback@ScryptKDFAsyncWorker@@UEAAXXZ 0000000180003490 f   scrypt_kdf_async.obj
 0001:00002570       ?kdf@@YAXAEBV?$FunctionCallbackInfo@VValue@v8@@@Nan@@@Z 0000000180003570 f   scrypt_kdf_async.obj
 0001:000025d0       ?kdfSync@@YAXAEBV?$FunctionCallbackInfo@VValue@v8@@@Nan@@@Z 00000001800035d0 f   scrypt_kdf_sync.obj
 0001:00002750       ?kdfVerifySync@@YAXAEBV?$FunctionCallbackInfo@VValue@v8@@@Nan@@@Z 0000000180003750 f   scrypt_kdf-verify_sync.obj
 0001:00002860       ??0ScryptKDFVerifyAsyncWorker@@QEAA@AEBV?$FunctionCallbackInfo@VValue@v8@@@Nan@@@Z 0000000180003860 f i scrypt_kdf-verify_async.obj
 0001:00002b30       ??_GScryptKDFVerifyAsyncWorker@@UEAAPEAXI@Z 0000000180003b30 f i scrypt_kdf-verify_async.obj
 0001:00002b30       ??_EScryptKDFVerifyAsyncWorker@@UEAAPEAXI@Z 0000000180003b30 f i * CIL library *:* CIL module *
 0001:00002b70       ?Execute@ScryptKDFVerifyAsyncWorker@@UEAAXXZ 0000000180003b70 f   scrypt_kdf-verify_async.obj
 0001:00002bc0       ?HandleOKCallback@ScryptKDFVerifyAsyncWorker@@UEAAXXZ 0000000180003bc0 f   scrypt_kdf-verify_async.obj
 0001:00002c50       ?kdfVerify@@YAXAEBV?$FunctionCallbackInfo@VValue@v8@@@Nan@@@Z 0000000180003c50 f   scrypt_kdf-verify_async.obj
 0001:00002cb0       ?hashSync@@YAXAEBV?$FunctionCallbackInfo@VValue@v8@@@Nan@@@Z 0000000180003cb0 f   scrypt_hash_sync.obj
 0001:00002ed0       ??0ScryptHashAsyncWorker@@QEAA@AEBV?$FunctionCallbackInfo@VValue@v8@@@Nan@@@Z 0000000180003ed0 f i scrypt_hash_async.obj
 0001:000032f0       ??_GScryptHashAsyncWorker@@UEAAPEAXI@Z 00000001800042f0 f i scrypt_hash_async.obj
 0001:000032f0       ??_EScryptHashAsyncWorker@@UEAAPEAXI@Z 00000001800042f0 f i * CIL library *:* CIL module *
 0001:00003330       ?Execute@ScryptHashAsyncWorker@@UEAAXXZ 0000000180004330 f   scrypt_hash_async.obj
 0001:000033e0       ?HandleOKCallback@ScryptHashAsyncWorker@@UEAAXXZ 00000001800043e0 f   scrypt_hash_async.obj
 0001:000034c0       ?hash@@YAXAEBV?$FunctionCallbackInfo@VValue@v8@@@Nan@@@Z 00000001800044c0 f   scrypt_hash_async.obj
 0001:000035f0       ?NewInstance@Nan@@YA?AV?$MaybeLocal@VObject@v8@@@v8@@V?$Local@VObjectTemplate@v8@@@3@@Z 00000001800045f0 f i scrypt_node.obj
 0001:00003670       ?GetFunction@Nan@@YA?AV?$MaybeLocal@VFunction@v8@@@v8@@V?$Local@VFunctionTemplate@v8@@@3@@Z 0000000180004670 f i scrypt_node.obj
 0001:000036f0       ?Set@Nan@@YA?AV?$Maybe@_N@v8@@V?$Local@VObject@v8@@@3@V?$Local@VValue@v8@@@3@1@Z 00000001800046f0 f i scrypt_node.obj
 0001:00003780       ?New@?$Factory@VFunctionTemplate@v8@@@imp@Nan@@SA?AV?$Local@VFunctionTemplate@v8@@@v8@@P6AXAEBV?$FunctionCallbackInfo@VValue@v8@@@3@@ZV?$Local@VValue@v8@@@5@V?$Local@VSignature@v8@@@5@@Z 0000000180004780 f i scrypt_node.obj
 0001:00003900       ?InitAll@@YAXV?$Local@VObject@v8@@@v8@@@Z 0000000180004900 f   scrypt_node.obj
 0001:00003d10       pickparams                 0000000180004d10 f   scrypt_wrapper:pickparams.obj
 0001:00003e90       KDF                        0000000180004e90 f   scrypt_wrapper:keyderivation.obj
 0001:00004190       Verify                     0000000180005190 f   scrypt_wrapper:keyderivation.obj
 0001:00004480       scryptenc_cpuperf          0000000180005480 f   scrypt_lib:scryptenc_cpuperf.obj
 0001:00006350       libcperciva_SHA256_Update  0000000180007350 f   scrypt_lib:sha256.obj
 0001:00006410       libcperciva_SHA256_Final   0000000180007410 f   scrypt_lib:sha256.obj
 0001:00006530       libcperciva_HMAC_SHA256_Init 0000000180007530 f   scrypt_lib:sha256.obj
 0001:000068d0       libcperciva_HMAC_SHA256_Final 00000001800078d0 f   scrypt_lib:sha256.obj
 0001:00006a00       PBKDF2_SHA256              0000000180007a00 f   scrypt_lib:sha256.obj
 0001:00006fb0       crypto_scrypt              0000000180007fb0 f   scrypt_lib:crypto_scrypt.obj
 0001:000070c0       __local_stdio_printf_options 00000001800080c0 f i scrypt_lib:warnp.obj
 0001:000070d0       fprintf                    00000001800080d0 f i scrypt_lib:warnp.obj
 0001:00007120       libcperciva_warnx          0000000180008120 f   scrypt_lib:warnp.obj
 0001:00007770       crypto_scrypt_smix         0000000180008770 f   scrypt_lib:crypto_scrypt_smix.obj
 0001:00007b60       ??0bad_alloc@std@@QEAA@AEBV01@@Z 0000000180008b60 f i libcpmt:xthrow.obj
 0001:00007ba0       ??0bad_alloc@std@@QEAA@XZ  0000000180008ba0 f i libcpmt:xthrow.obj
 0001:00007bc0       ??0exception@std@@QEAA@AEBV01@@Z 0000000180008bc0 f i libcpmt:xthrow.obj
 0001:00007bf8       ??0length_error@std@@QEAA@AEBV01@@Z 0000000180008bf8 f i libcpmt:xthrow.obj
 0001:00007c38       ??0length_error@std@@QEAA@PEBD@Z 0000000180008c38 f i libcpmt:xthrow.obj
 0001:00007c84       ??0logic_error@std@@QEAA@AEBV01@@Z 0000000180008c84 f i libcpmt:xthrow.obj
 0001:00007cc4       ??0out_of_range@std@@QEAA@AEBV01@@Z 0000000180008cc4 f i libcpmt:xthrow.obj
 0001:00007d04       ??0out_of_range@std@@QEAA@PEBD@Z 0000000180008d04 f i libcpmt:xthrow.obj
 0001:00007d50       ??1bad_array_new_length@std@@UEAA@XZ 0000000180008d50 f i LIBCMT:throw_bad_alloc.obj
 0001:00007d50       ??1bad_alloc@std@@UEAA@XZ  0000000180008d50 f i libcpmt:xthrow.obj
 0001:00007d50       ??1length_error@std@@UEAA@XZ 0000000180008d50 f i libcpmt:xthrow.obj
 0001:00007d50       ??1out_of_range@std@@UEAA@XZ 0000000180008d50 f i libcpmt:xthrow.obj
 0001:00007d50       ??1bad_exception@std@@UEAA@XZ 0000000180008d50 f i libvcruntime:frame.obj
 0001:00007d64       ??_Gout_of_range@std@@UEAAPEAXI@Z 0000000180008d64 f i libcpmt:xthrow.obj
 0001:00007d64       ??_Gbad_array_new_length@std@@UEAAPEAXI@Z 0000000180008d64 f i LIBCMT:throw_bad_alloc.obj
 0001:00007d64       ??_Ebad_array_new_length@std@@UEAAPEAXI@Z 0000000180008d64 f i LIBCMT:throw_bad_alloc.obj
 0001:00007d64       ??_Gexception@std@@UEAAPEAXI@Z 0000000180008d64 f i libcpmt:xthrow.obj
 0001:00007d64       ??_Gbad_alloc@std@@UEAAPEAXI@Z 0000000180008d64 f i libcpmt:xthrow.obj
 0001:00007d64       ??_Elogic_error@std@@UEAAPEAXI@Z 0000000180008d64 f i libcpmt:xthrow.obj
 0001:00007d64       ??_Elength_error@std@@UEAAPEAXI@Z 0000000180008d64 f i libcpmt:xthrow.obj
 0001:00007d64       ??_Glength_error@std@@UEAAPEAXI@Z 0000000180008d64 f i libcpmt:xthrow.obj
 0001:00007d64       ??_Eexception@std@@UEAAPEAXI@Z 0000000180008d64 f i libcpmt:xthrow.obj
 0001:00007d64       ??_Eout_of_range@std@@UEAAPEAXI@Z 0000000180008d64 f i libcpmt:xthrow.obj
 0001:00007d64       ??_Ebad_exception@std@@UEAAPEAXI@Z 0000000180008d64 f i libvcruntime:frame.obj
 0001:00007d64       ??_Ebad_alloc@std@@UEAAPEAXI@Z 0000000180008d64 f i libcpmt:xthrow.obj
 0001:00007d64       ??_Gbad_exception@std@@UEAAPEAXI@Z 0000000180008d64 f i libvcruntime:frame.obj
 0001:00007d64       ??_Glogic_error@std@@UEAAPEAXI@Z 0000000180008d64 f i libcpmt:xthrow.obj
 0001:00007da8       ?__scrt_throw_std_bad_alloc@@YAXXZ 0000000180008da8 f   LIBCMT:throw_bad_alloc.obj
 0001:00007da8       ?_Xbad_alloc@std@@YAXXZ    0000000180008da8 f   libcpmt:xthrow.obj
 0001:00007dc8       ?_Xlength_error@std@@YAXPEBD@Z 0000000180008dc8 f   libcpmt:xthrow.obj
 0001:00007dec       ?_Xout_of_range@std@@YAXPEBD@Z 0000000180008dec f   libcpmt:xthrow.obj
 0001:00007e10       ?what@exception@std@@UEBAPEBDXZ 0000000180008e10 f i libcpmt:xthrow.obj
 0001:00007e40       __security_check_cookie    0000000180008e40 f   LIBCMT:_amdsecgs_.obj
 0001:00007e64       ??2@YAPEAX_K@Z             0000000180008e64 f   LIBCMT:new_scalar.obj
 0001:00007ea0       ??3@YAXPEAX@Z              0000000180008ea0 f   LIBCMT:delete_scalar.obj
 0001:00007ea8       ??3@YAXPEAX_K@Z            0000000180008ea8 f   LIBCMT:delete_scalar_size.obj
 0001:00007ea8       ??_V@YAXPEAX@Z             0000000180008ea8 f   LIBCMT:delete_array.obj
 0001:000081fc       _DllMainCRTStartup         00000001800091fc f   LIBCMT:dll_dllmain.obj
 0001:0000823c       __scrt_acquire_startup_lock 000000018000923c f   LIBCMT:utility.obj
 0001:00008278       __scrt_dllmain_after_initialize_c 0000000180009278 f   LIBCMT:utility.obj
 0001:000082ac       __scrt_dllmain_before_initialize_c 00000001800092ac f   LIBCMT:utility.obj
 0001:000082c4       __scrt_dllmain_crt_thread_attach 00000001800092c4 f   LIBCMT:utility.obj
 0001:000082ec       __scrt_dllmain_crt_thread_detach 00000001800092ec f   LIBCMT:utility.obj
 0001:00008304       __scrt_dllmain_exception_filter 0000000180009304 f   LIBCMT:utility.obj
 0001:00008368       __scrt_dllmain_uninitialize_c 0000000180009368 f   LIBCMT:utility.obj
 0001:00008398       __scrt_dllmain_uninitialize_critical 0000000180009398 f   LIBCMT:utility.obj
 0001:000083ac       __scrt_initialize_crt      00000001800093ac f   LIBCMT:utility.obj
 0001:000083f8       __scrt_initialize_onexit_tables 00000001800093f8 f   LIBCMT:utility.obj
 0001:000084c4       __scrt_is_nonwritable_in_current_image 00000001800094c4 f   LIBCMT:utility.obj
 0001:00008560       __scrt_release_startup_lock 0000000180009560 f   LIBCMT:utility.obj
 0001:00008584       __scrt_uninitialize_crt    0000000180009584 f   LIBCMT:utility.obj
 0001:000085b0       _onexit                    00000001800095b0 f   LIBCMT:utility.obj
 0001:00008600       atexit                     0000000180009600 f   LIBCMT:utility.obj
 0001:00008618       ??_Gtype_info@@UEAAPEAXI@Z 0000000180009618 f i LIBCMT:std_type_info_static.obj
 0001:00008618       ??_Etype_info@@UEAAPEAXI@Z 0000000180009618 f i LIBCMT:std_type_info_static.obj
 0001:00008644       __raise_securityfailure    0000000180009644 f   LIBCMT:gs_report.obj
 0001:00008678       __report_gsfailure         0000000180009678 f   LIBCMT:gs_report.obj
 0001:0000874c       __report_rangecheckfailure 000000018000974c f   LIBCMT:gs_report.obj
 0001:00008760       __report_securityfailure   0000000180009760 f   LIBCMT:gs_report.obj
 0001:000088e0       ??0bad_array_new_length@std@@QEAA@AEBV01@@Z 00000001800098e0 f i LIBCMT:throw_bad_alloc.obj
 0001:00008920       ??0bad_array_new_length@std@@QEAA@XZ 0000000180009920 f i LIBCMT:throw_bad_alloc.obj
 0001:00008940       ?__scrt_throw_std_bad_array_new_length@@YAXXZ 0000000180009940 f   LIBCMT:throw_bad_alloc.obj
 0001:00008960       __security_init_cookie     0000000180009960 f   LIBCMT:gs_support.obj
 0001:00008a0c       ?__scrt_initialize_type_info@@YAXXZ 0000000180009a0c f   LIBCMT:tncleanup.obj
 0001:00008a1c       ?__scrt_uninitialize_type_info@@YAXXZ 0000000180009a1c f   LIBCMT:tncleanup.obj
 0001:00008a28       __local_stdio_scanf_options 0000000180009a28 f i LIBCMT:default_local_stdio_options.obj
 0001:00008a30       __scrt_initialize_default_local_stdio_options 0000000180009a30 f   LIBCMT:default_local_stdio_options.obj
 0001:00008a4c       __scrt_get_dyn_tls_init_callback 0000000180009a4c f   LIBCMT:dyn_tls_init.obj
 0001:00008a54       __crt_debugger_hook        0000000180009a54 f   LIBCMT:utility_desktop.obj
 0001:00008a5c       __scrt_fastfail            0000000180009a5c f   LIBCMT:utility_desktop.obj
 0001:00008ba4       _RTC_Initialize            0000000180009ba4 f   LIBCMT:_initsect_.obj
 0001:00008bf0       _RTC_Terminate             0000000180009bf0 f   LIBCMT:_initsect_.obj
 0001:00008c3c       _guard_check_icall         0000000180009c3c f i LIBCMT:checkcfg.obj
 0001:00008c44       __isa_available_init       0000000180009c44 f   LIBCMT:_cpu_disp_.obj
 0001:00008e0c       _get_startup_argv_mode     0000000180009e0c f   LIBCMT:argv_mode.obj
 0001:00008e0c       DllMain                    0000000180009e0c f   LIBCMT:dll_dllmain_stub.obj
 0001:00008e14       __scrt_is_ucrt_dll_in_use  0000000180009e14 f   LIBCMT:ucrt_detection.obj
 0001:00008e20       __except_validate_context_record 0000000180009e20 f i libvcruntime:jbcxrval.obj
 0001:00008e20       _guard_check_icall_nop     0000000180009e20 f i LIBCMT:guard_support.obj
 0001:00008e40       memmove                    0000000180009e40 f   libvcruntime:memcpy.obj
 0001:00008e40       memcpy                     0000000180009e40 f   libvcruntime:memcpy.obj
 0001:00009278       __DestructExceptionObject  000000018000a278 f   libvcruntime:frame.obj
 0001:00009300       ??0bad_exception@std@@QEAA@AEBV01@@Z 000000018000a300 f i libvcruntime:frame.obj
 0001:00009340       ??0bad_exception@std@@QEAA@XZ 000000018000a340 f i libvcruntime:frame.obj
 0001:00009cbc       ?_CallMemberFunction0@@YAXPEAXP6AX0@Z@Z 000000018000acbc f i libvcruntime:frame.obj
 0001:00009cc0       ?_CallMemberFunction1@@YAXPEAXP6AX0@Z0@Z 000000018000acc0 f i libvcruntime:frame.obj
 0001:00009ccc       ?_CallMemberFunction2@@YAXPEAXP6AX0@Z0H@Z 000000018000accc f i libvcruntime:frame.obj
 0001:00009cdc       __AdjustPointer            000000018000acdc f   libvcruntime:frame.obj
 0001:00009d00       __BuildCatchObject         000000018000ad00 f   libvcruntime:frame.obj
 0001:00009dc4       __BuildCatchObjectHelper   000000018000adc4 f   libvcruntime:frame.obj
 0001:00009fa4       __CxxCallCatchBlock        000000018000afa4 f   libvcruntime:frame.obj
 0001:0000a190       __FrameUnwindFilter        000000018000b190 f   libvcruntime:frame.obj
 0001:0000a1dc       __FrameUnwindToState       000000018000b1dc f   libvcruntime:frame.obj
 0001:0000a370       __InternalCxxFrameHandler  000000018000b370 f   libvcruntime:frame.obj
 0001:0000a5c8       __TypeMatch                000000018000b5c8 f   libvcruntime:frame.obj
 0001:0000a708       __std_terminate            000000018000b708 f   libvcruntime:frame.obj
 0001:0000a714       _purecall                  000000018000b714 f   libvcruntime:purevirt.obj
 0001:0000a750       __std_exception_copy       000000018000b750 f   libvcruntime:std_exception.obj
 0001:0000a7e0       __std_exception_destroy    000000018000b7e0 f   libvcruntime:std_exception.obj
 0001:0000a808       _CxxThrowException         000000018000b808 f   libvcruntime:throw.obj
 0001:0000a8e0       __C_specific_handler       000000018000b8e0 f   libvcruntime:_chandler_.obj
 0001:0000aadc       __vcrt_initialize          000000018000badc f   libvcruntime:initialization.obj
 0001:0000ab10       __vcrt_thread_attach       000000018000bb10 f   libvcruntime:initialization.obj
 0001:0000ab24       __vcrt_thread_detach       000000018000bb24 f   libvcruntime:initialization.obj
 0001:0000ab38       __vcrt_uninitialize        000000018000bb38 f   libvcruntime:initialization.obj
 0001:0000ab58       __vcrt_uninitialize_critical 000000018000bb58 f   libvcruntime:initialization.obj
 0001:0000ab68       __std_type_info_compare    000000018000bb68 f   libvcruntime:std_type_info.obj
 0001:0000ab90       __std_type_info_destroy_list 000000018000bb90 f   libvcruntime:std_type_info.obj
 0001:0000abd0       memset                     000000018000bbd0 f   libvcruntime:memset.obj
 0001:0000ad70       __vcrt_freefls             000000018000bd70 f   libvcruntime:per_thread_data.obj
 0001:0000ad90       __vcrt_freeptd             000000018000bd90 f   libvcruntime:per_thread_data.obj
 0001:0000ade0       __vcrt_getptd              000000018000bde0 f   libvcruntime:per_thread_data.obj
 0001:0000adfc       __vcrt_getptd_noexit       000000018000bdfc f   libvcruntime:per_thread_data.obj
 0001:0000aeb4       __vcrt_initialize_ptd      000000018000beb4 f   libvcruntime:per_thread_data.obj
 0001:0000aef4       __vcrt_uninitialize_ptd    000000018000bef4 f   libvcruntime:per_thread_data.obj
 0001:0000af18       ?__GetCurrentState@@YAHPEA_KPEAU_xDISPATCHER_CONTEXT@@PEBU_s_FuncInfo@@@Z 000000018000bf18 f   libvcruntime:ehstate.obj
 0001:0000af40       ?__GetUnwindTryBlock@@YAHPEA_KPEAU_xDISPATCHER_CONTEXT@@PEBU_s_FuncInfo@@@Z 000000018000bf40 f   libvcruntime:ehstate.obj
 0001:0000af6c       ?__SetState@@YAXPEA_KPEAU_xDISPATCHER_CONTEXT@@PEBU_s_FuncInfo@@H@Z 000000018000bf6c f   libvcruntime:ehstate.obj
 0001:0000af78       ?__SetUnwindTryBlock@@YAXPEA_KPEAU_xDISPATCHER_CONTEXT@@PEBU_s_FuncInfo@@H@Z 000000018000bf78 f   libvcruntime:ehstate.obj
 0001:0000afb4       ?__StateFromControlPc@@YAHPEBU_s_FuncInfo@@PEAU_xDISPATCHER_CONTEXT@@@Z 000000018000bfb4 f   libvcruntime:ehstate.obj
 0001:0000afbc       ?__StateFromIp@@YAHPEBU_s_FuncInfo@@PEAU_xDISPATCHER_CONTEXT@@_J@Z 000000018000bfbc f   libvcruntime:ehstate.obj
 0001:0000b040       _CallSettingFrame          000000018000c040 f   libvcruntime:handlers.obj
 0001:0000b080       ?_ExecutionInCatch@@YAHPEAU_xDISPATCHER_CONTEXT@@PEBU_s_FuncInfo@@@Z 000000018000c080 f   libvcruntime:trnsctrl.obj
 0001:0000b0f4       ?_GetEstablisherFrame@@YAPEA_KPEA_KPEAU_xDISPATCHER_CONTEXT@@PEBU_s_FuncInfo@@0@Z 000000018000c0f4 f   libvcruntime:trnsctrl.obj
 0001:0000b1c0       ?_GetRangeOfTrysToCheck@@YAPEBU_s_TryBlockMapEntry@@PEA_KPEBU_s_FuncInfo@@HHPEAI2PEAU_xDISPATCHER_CONTEXT@@@Z 000000018000c1c0 f   libvcruntime:trnsctrl.obj
 0001:0000b2ec       ?__FrameUnwindToEmptyState@@YAXPEA_KPEAU_xDISPATCHER_CONTEXT@@PEBU_s_FuncInfo@@@Z 000000018000c2ec f   libvcruntime:trnsctrl.obj
 0001:0000b380       ?__SehTransFilter@@YAHPEAU_EXCEPTION_POINTERS@@PEAUEHExceptionRecord@@PEA_KPEAU_CONTEXT@@PEAU_xDISPATCHER_CONTEXT@@PEBU_s_FuncInfo@@PEAH@Z 000000018000c380 f   libvcruntime:trnsctrl.obj
 0001:0000b418       _CallSETranslator          000000018000c418 f   libvcruntime:trnsctrl.obj
 0001:0000b470       _CreateFrameInfo           000000018000c470 f   libvcruntime:trnsctrl.obj
 0001:0000b4ac       _FindAndUnlinkFrame        000000018000c4ac f   libvcruntime:trnsctrl.obj
 0001:0000b504       _GetImageBase              000000018000c504 f   libvcruntime:trnsctrl.obj
 0001:0000b518       _GetThrowImageBase         000000018000c518 f   libvcruntime:trnsctrl.obj
 0001:0000b52c       _IsExceptionObjectToBeDestroyed 000000018000c52c f   libvcruntime:trnsctrl.obj
 0001:0000b55c       _SetImageBase              000000018000c55c f   libvcruntime:trnsctrl.obj
 0001:0000b574       _SetThrowImageBase         000000018000c574 f   libvcruntime:trnsctrl.obj
 0001:0000b58c       _UnwindNestedFrames        000000018000c58c f   libvcruntime:trnsctrl.obj
 0001:0000b6b0       __CxxFrameHandler3         000000018000c6b0 f   libvcruntime:trnsctrl.obj
 0001:0000b740       _local_unwind              000000018000c740 f   libvcruntime:_jmpuwind_.obj
 0001:0000b770       _NLG_Notify                000000018000c770 f   libvcruntime:_jmpuwind_.obj
 0001:0000b790       __NLG_Dispatch2            000000018000c790 f   libvcruntime:_jmpuwind_.obj
 0001:0000b7a0       __NLG_Return2              000000018000c7a0 f   libvcruntime:_jmpuwind_.obj
 0001:0000b7a4       __vcrt_initialize_pure_virtual_call_handler 000000018000c7a4 f   libvcruntime:purevirt_data.obj
 0001:0000b7c8       __vcrt_initialize_locks    000000018000c7c8 f   libvcruntime:locks.obj
 0001:0000b810       __vcrt_uninitialize_locks  000000018000c810 f   libvcruntime:locks.obj
 0001:0000ba10       __vcrt_FlsAlloc            000000018000ca10 f   libvcruntime:winapi_downlevel.obj
 0001:0000ba64       __vcrt_FlsFree             000000018000ca64 f   libvcruntime:winapi_downlevel.obj
 0001:0000bab8       __vcrt_FlsGetValue         000000018000cab8 f   libvcruntime:winapi_downlevel.obj
 0001:0000bb0c       __vcrt_FlsSetValue         000000018000cb0c f   libvcruntime:winapi_downlevel.obj
 0001:0000bb74       __vcrt_InitializeCriticalSectionEx 000000018000cb74 f   libvcruntime:winapi_downlevel.obj
 0001:0000bbec       __vcrt_initialize_winapi_thunks 000000018000cbec f   libvcruntime:winapi_downlevel.obj
 0001:0000bc38       __vcrt_uninitialize_winapi_thunks 000000018000cc38 f   libvcruntime:winapi_downlevel.obj
 0001:0000bc78       strerror                   000000018000cc78 f   libucrt:strerror.obj
 0001:0000bd1c       __acrt_call_reportfault    000000018000cd1c f   libucrt:invalid_parameter.obj
 0001:0000be78       __acrt_initialize_invalid_parameter_handler 000000018000ce78 f   libucrt:invalid_parameter.obj
 0001:0000be80       _invalid_parameter         000000018000ce80 f   libucrt:invalid_parameter.obj
 0001:0000bf28       _invalid_parameter_noinfo  000000018000cf28 f   libucrt:invalid_parameter.obj
 0001:0000bf48       _invalid_parameter_noinfo_noreturn 000000018000cf48 f   libucrt:invalid_parameter.obj
 0001:0000bf78       _invoke_watson             000000018000cf78 f   libucrt:invalid_parameter.obj
 0001:0000c9a8       ??$ftprintf@PEAU_iobuf@@PEB_WAEBQEB_WAEBQEB_WAEBI@?$__crt_char_traits@_W@@SAH$$QEAPEAU_iobuf@@$$QEAPEB_WAEBQEB_W2AEBI@Z 000000018000d9a8 f i libucrt:assert.obj
 0001:0000c9d0       _wassert                   000000018000d9d0 f   libucrt:assert.obj
 0001:0000ca54       fwprintf                   000000018000da54 f i libucrt:assert.obj
 0001:0000ca98       swprintf                   000000018000da98 f i libucrt:assert.obj
 0001:0000caec       ??0_LocaleUpdate@@QEAA@QEAU__crt_locale_pointers@@@Z 000000018000daec f i libucrt:stricmp.obj
 0001:0000cb7c       __acrt_errno_from_os_error 000000018000db7c f   libucrt:errno.obj
 0001:0000cbc4       __acrt_errno_map_os_error  000000018000dbc4 f   libucrt:errno.obj
 0001:0000cc14       __doserrno                 000000018000dc14 f   libucrt:errno.obj
 0001:0000cc34       _errno                     000000018000dc34 f   libucrt:errno.obj
 0001:0000cc54       abort                      000000018000dc54 f   libucrt:abort.obj
 0001:0000ccac       free                       000000018000dcac f   libucrt:free.obj
 0001:0000ccb4       malloc                     000000018000dcb4 f   libucrt:malloc.obj
 0001:0000ccbc       __acrt_initialize_stdio    000000018000dcbc f   libucrt:_file.obj
 0001:0000cddc       __acrt_iob_func            000000018000dddc f   libucrt:_file.obj
 0001:0000cdf0       __acrt_uninitialize_stdio  000000018000ddf0 f   libucrt:_file.obj
 0001:0000ce4c       _lock_file                 000000018000de4c f   libucrt:_file.obj
 0001:0000ce58       _unlock_file               000000018000de58 f   libucrt:_file.obj
 0001:0000ce64       ??$?RV<lambda_7b91131dde12e1c3dfc74ff76b3f2eac>@@AEAV<lambda_dd75445284c072d0bd3768540cc698fa>@@V<lambda_16bc4ecb55b4718497c16bceaea2ceaf>@@@?$__crt_seh_guarded_call@H@@QEAAH$$QEAV<lambda_7b91131dde12e1c3dfc74ff76b3f2eac>@@AEAV<lambda_dd75445284c072d0bd3768540cc698fa>@@$$QEAV<lambda_16bc4ecb55b4718497c16bceaea2ceaf>@@@Z 000000018000de64 f i libucrt:output.obj
 0001:0000cea4       ??$?RV<lambda_aa279a7bcb127014629d5b1d62c7325d>@@AEAV<lambda_0a64b6a4deda75c01876f29c44fc5eb3>@@V<lambda_3323e69fbefe9d1a11713e670d47cdfa>@@@?$__crt_seh_guarded_call@H@@QEAAH$$QEAV<lambda_aa279a7bcb127014629d5b1d62c7325d>@@AEAV<lambda_0a64b6a4deda75c01876f29c44fc5eb3>@@$$QEAV<lambda_3323e69fbefe9d1a11713e670d47cdfa>@@@Z 000000018000dea4 f i libucrt:output.obj
 0001:0000cee4       ??$ensure_buffer_is_big_enough@D@formatting_buffer@__crt_stdio_output@@QEAA_N_K@Z 000000018000dee4 f i libucrt:output.obj
 0001:0000cf90       ??$is_wide_character_specifier@D@__crt_stdio_output@@YA_N_KDW4length_modifier@0@@Z 000000018000df90 f i libucrt:output.obj
 0001:0000cfc0       ??$is_wide_character_specifier@_W@__crt_stdio_output@@YA_N_K_WW4length_modifier@0@@Z 000000018000dfc0 f i libucrt:output.obj
 0001:0000d004       ??$type_case_integer_parse_into_buffer@I@?$output_processor@_WV?$string_output_adapter@_W@__crt_stdio_output@@V?$standard_base@_WV?$string_output_adapter@_W@__crt_stdio_output@@@2@@__crt_stdio_output@@AEAAXII_N@Z 000000018000e004 f i libucrt:output.obj
 0001:0000d004       ??$type_case_integer_parse_into_buffer@I@?$output_processor@DV?$stream_output_adapter@D@__crt_stdio_output@@V?$standard_base@DV?$stream_output_adapter@D@__crt_stdio_output@@@2@@__crt_stdio_output@@AEAAXII_N@Z 000000018000e004 f i libucrt:output.obj
 0001:0000d004       ??$type_case_integer_parse_into_buffer@I@?$output_processor@_WV?$stream_output_adapter@_W@__crt_stdio_output@@V?$standard_base@_WV?$stream_output_adapter@_W@__crt_stdio_output@@@2@@__crt_stdio_output@@AEAAXII_N@Z 000000018000e004 f i libucrt:output.obj
 0001:0000d0a0       ??$type_case_integer_parse_into_buffer@_K@?$output_processor@_WV?$stream_output_adapter@_W@__crt_stdio_output@@V?$standard_base@_WV?$stream_output_adapter@_W@__crt_stdio_output@@@2@@__crt_stdio_output@@AEAAX_KI_N@Z 000000018000e0a0 f i libucrt:output.obj
 0001:0000d0a0       ??$type_case_integer_parse_into_buffer@_K@?$output_processor@_WV?$string_output_adapter@_W@__crt_stdio_output@@V?$standard_base@_WV?$string_output_adapter@_W@__crt_stdio_output@@@2@@__crt_stdio_output@@AEAAX_KI_N@Z 000000018000e0a0 f i libucrt:output.obj
 0001:0000d0a0       ??$type_case_integer_parse_into_buffer@_K@?$output_processor@DV?$stream_output_adapter@D@__crt_stdio_output@@V?$standard_base@DV?$stream_output_adapter@D@__crt_stdio_output@@@2@@__crt_stdio_output@@AEAAX_KI_N@Z 000000018000e0a0 f i libucrt:output.obj
 0001:0000d13c       ??$write_multiple_characters@V?$stream_output_adapter@D@__crt_stdio_output@@D@__crt_stdio_output@@YAXAEBV?$stream_output_adapter@D@0@DHQEAH@Z 000000018000e13c f i libucrt:output.obj
 0001:0000d1c0       ??$write_multiple_characters@V?$stream_output_adapter@_W@__crt_stdio_output@@D@__crt_stdio_output@@YAXAEBV?$stream_output_adapter@_W@0@DHQEAH@Z 000000018000e1c0 f i libucrt:output.obj
 0001:0000d250       ??$write_multiple_characters@V?$string_output_adapter@_W@__crt_stdio_output@@D@__crt_stdio_output@@YAXAEBV?$string_output_adapter@_W@0@DHQEAH@Z 000000018000e250 f i libucrt:output.obj
 0001:0000d2c0       ??0?$output_processor@DV?$stream_output_adapter@D@__crt_stdio_output@@V?$standard_base@DV?$stream_output_adapter@D@__crt_stdio_output@@@2@@__crt_stdio_output@@QEAA@AEBV?$stream_output_adapter@D@1@_KQEBDQEAU__crt_locale_pointers@@QEAD@Z 000000018000e2c0 f i libucrt:output.obj
 0001:0000d33c       ??0?$output_processor@_WV?$string_output_adapter@_W@__crt_stdio_output@@V?$standard_base@_WV?$string_output_adapter@_W@__crt_stdio_output@@@2@@__crt_stdio_output@@QEAA@AEBV?$string_output_adapter@_W@1@_KQEB_WQEAU__crt_locale_pointers@@QEAD@Z 000000018000e33c f i libucrt:output.obj
 0001:0000d33c       ??0?$output_processor@_WV?$stream_output_adapter@_W@__crt_stdio_output@@V?$standard_base@_WV?$stream_output_adapter@_W@__crt_stdio_output@@@2@@__crt_stdio_output@@QEAA@AEBV?$stream_output_adapter@_W@1@_KQEB_WQEAU__crt_locale_pointers@@QEAD@Z 000000018000e33c f i libucrt:output.obj
 0001:0000d59c       ?force_decimal_point@__crt_stdio_output@@YAXPEADQEAU__crt_locale_pointers@@@Z 000000018000e59c f i libucrt:output.obj
 0001:0000d60c       ?parse_int_from_format_string@?$output_processor@DV?$stream_output_adapter@D@__crt_stdio_output@@V?$standard_base@DV?$stream_output_adapter@D@__crt_stdio_output@@@2@@__crt_stdio_output@@AEAA_NQEAH@Z 000000018000e60c f i libucrt:output.obj
 0001:0000d690       ?parse_int_from_format_string@?$output_processor@_WV?$stream_output_adapter@_W@__crt_stdio_output@@V?$standard_base@_WV?$stream_output_adapter@_W@__crt_stdio_output@@@2@@__crt_stdio_output@@AEAA_NQEAH@Z 000000018000e690 f i libucrt:output.obj
 0001:0000d690       ?parse_int_from_format_string@?$output_processor@_WV?$string_output_adapter@_W@__crt_stdio_output@@V?$standard_base@_WV?$string_output_adapter@_W@__crt_stdio_output@@@2@@__crt_stdio_output@@AEAA_NQEAH@Z 000000018000e690 f i libucrt:output.obj
 0001:0000d710       ?process@?$output_processor@DV?$stream_output_adapter@D@__crt_stdio_output@@V?$standard_base@DV?$stream_output_adapter@D@__crt_stdio_output@@@2@@__crt_stdio_output@@QEAAHXZ 000000018000e710 f i libucrt:output.obj
 0001:0000d920       ?process@?$output_processor@_WV?$stream_output_adapter@_W@__crt_stdio_output@@V?$standard_base@_WV?$stream_output_adapter@_W@__crt_stdio_output@@@2@@__crt_stdio_output@@QEAAHXZ 000000018000e920 f i libucrt:output.obj
 0001:0000db98       ?process@?$output_processor@_WV?$string_output_adapter@_W@__crt_stdio_output@@V?$standard_base@_WV?$string_output_adapter@_W@__crt_stdio_output@@@2@@__crt_stdio_output@@QEAAHXZ 000000018000eb98 f i libucrt:output.obj
 0001:0000de14       ?state_case_normal@?$output_processor@DV?$stream_output_adapter@D@__crt_stdio_output@@V?$standard_base@DV?$stream_output_adapter@D@__crt_stdio_output@@@2@@__crt_stdio_output@@AEAA_NXZ 000000018000ee14 f i libucrt:output.obj
 0001:0000de84       ?state_case_normal_tchar@?$output_processor@DV?$stream_output_adapter@D@__crt_stdio_output@@V?$standard_base@DV?$stream_output_adapter@D@__crt_stdio_output@@@2@@__crt_stdio_output@@AEAA_ND@Z 000000018000ee84 f i libucrt:output.obj
 0001:0000df18       ?state_case_size@?$output_processor@DV?$stream_output_adapter@D@__crt_stdio_output@@V?$standard_base@DV?$stream_output_adapter@D@__crt_stdio_output@@@2@@__crt_stdio_output@@AEAA_NXZ 000000018000ef18 f i libucrt:output.obj
 0001:0000e094       ?state_case_size@?$output_processor@_WV?$stream_output_adapter@_W@__crt_stdio_output@@V?$standard_base@_WV?$stream_output_adapter@_W@__crt_stdio_output@@@2@@__crt_stdio_output@@AEAA_NXZ 000000018000f094 f i libucrt:output.obj
 0001:0000e238       ?state_case_size@?$output_processor@_WV?$string_output_adapter@_W@__crt_stdio_output@@V?$standard_base@_WV?$string_output_adapter@_W@__crt_stdio_output@@@2@@__crt_stdio_output@@AEAA_NXZ 000000018000f238 f i libucrt:output.obj
 0001:0000e3dc       ?state_case_type@?$output_processor@DV?$stream_output_adapter@D@__crt_stdio_output@@V?$standard_base@DV?$stream_output_adapter@D@__crt_stdio_output@@@2@@__crt_stdio_output@@AEAA_NXZ 000000018000f3dc f i libucrt:output.obj
 0001:0000e658       ?state_case_type@?$output_processor@_WV?$stream_output_adapter@_W@__crt_stdio_output@@V?$standard_base@_WV?$stream_output_adapter@_W@__crt_stdio_output@@@2@@__crt_stdio_output@@AEAA_NXZ 000000018000f658 f i libucrt:output.obj
 0001:0000e924       ?state_case_type@?$output_processor@_WV?$string_output_adapter@_W@__crt_stdio_output@@V?$standard_base@_WV?$string_output_adapter@_W@__crt_stdio_output@@@2@@__crt_stdio_output@@AEAA_NXZ 000000018000f924 f i libucrt:output.obj
 0001:0000ebf0       ?type_case_Z@?$output_processor@DV?$stream_output_adapter@D@__crt_stdio_output@@V?$standard_base@DV?$stream_output_adapter@D@__crt_stdio_output@@@2@@__crt_stdio_output@@AEAA_NXZ 000000018000fbf0 f i libucrt:output.obj
 0001:0000ec70       ?type_case_Z@?$output_processor@_WV?$string_output_adapter@_W@__crt_stdio_output@@V?$standard_base@_WV?$string_output_adapter@_W@__crt_stdio_output@@@2@@__crt_stdio_output@@AEAA_NXZ 000000018000fc70 f i libucrt:output.obj
 0001:0000ec70       ?type_case_Z@?$output_processor@_WV?$stream_output_adapter@_W@__crt_stdio_output@@V?$standard_base@_WV?$stream_output_adapter@_W@__crt_stdio_output@@@2@@__crt_stdio_output@@AEAA_NXZ 000000018000fc70 f i libucrt:output.obj
 0001:0000ecf0       ?type_case_a@?$output_processor@DV?$stream_output_adapter@D@__crt_stdio_output@@V?$standard_base@DV?$stream_output_adapter@D@__crt_stdio_output@@@2@@__crt_stdio_output@@AEAA_NXZ 000000018000fcf0 f i libucrt:output.obj
 0001:0000ef0c       ?type_case_a@?$output_processor@_WV?$string_output_adapter@_W@__crt_stdio_output@@V?$standard_base@_WV?$string_output_adapter@_W@__crt_stdio_output@@@2@@__crt_stdio_output@@AEAA_NXZ 000000018000ff0c f i libucrt:output.obj
 0001:0000ef0c       ?type_case_a@?$output_processor@_WV?$stream_output_adapter@_W@__crt_stdio_output@@V?$standard_base@_WV?$stream_output_adapter@_W@__crt_stdio_output@@@2@@__crt_stdio_output@@AEAA_NXZ 000000018000ff0c f i libucrt:output.obj
 0001:0000f150       ?type_case_c_tchar@?$output_processor@DV?$stream_output_adapter@D@__crt_stdio_output@@V?$standard_base@DV?$stream_output_adapter@D@__crt_stdio_output@@@2@@__crt_stdio_output@@AEAA_ND@Z 0000000180010150 f i libucrt:output.obj
 0001:0000f204       ?type_case_c_tchar@?$output_processor@_WV?$string_output_adapter@_W@__crt_stdio_output@@V?$standard_base@_WV?$string_output_adapter@_W@__crt_stdio_output@@@2@@__crt_stdio_output@@AEAA_N_W@Z 0000000180010204 f i libucrt:output.obj
 0001:0000f204       ?type_case_c_tchar@?$output_processor@_WV?$stream_output_adapter@_W@__crt_stdio_output@@V?$standard_base@_WV?$stream_output_adapter@_W@__crt_stdio_output@@@2@@__crt_stdio_output@@AEAA_N_W@Z 0000000180010204 f i libucrt:output.obj
 0001:0000f2ac       ?type_case_integer@?$output_processor@_WV?$stream_output_adapter@_W@__crt_stdio_output@@V?$standard_base@_WV?$stream_output_adapter@_W@__crt_stdio_output@@@2@@__crt_stdio_output@@AEAA_NI_N@Z 00000001800102ac f i libucrt:output.obj
 0001:0000f2ac       ?type_case_integer@?$output_processor@DV?$stream_output_adapter@D@__crt_stdio_output@@V?$standard_base@DV?$stream_output_adapter@D@__crt_stdio_output@@@2@@__crt_stdio_output@@AEAA_NI_N@Z 00000001800102ac f i libucrt:output.obj
 0001:0000f2ac       ?type_case_integer@?$output_processor@_WV?$string_output_adapter@_W@__crt_stdio_output@@V?$standard_base@_WV?$string_output_adapter@_W@__crt_stdio_output@@@2@@__crt_stdio_output@@AEAA_NI_N@Z 00000001800102ac f i libucrt:output.obj
 0001:0000f44c       ?type_case_n@?$output_processor@DV?$stream_output_adapter@D@__crt_stdio_output@@V?$standard_base@DV?$stream_output_adapter@D@__crt_stdio_output@@@2@@__crt_stdio_output@@AEAA_NXZ 000000018001044c f i libucrt:output.obj
 0001:0000f44c       ?type_case_n@?$output_processor@_WV?$string_output_adapter@_W@__crt_stdio_output@@V?$standard_base@_WV?$string_output_adapter@_W@__crt_stdio_output@@@2@@__crt_stdio_output@@AEAA_NXZ 000000018001044c f i libucrt:output.obj
 0001:0000f44c       ?type_case_n@?$output_processor@_WV?$stream_output_adapter@_W@__crt_stdio_output@@V?$standard_base@_WV?$stream_output_adapter@_W@__crt_stdio_output@@@2@@__crt_stdio_output@@AEAA_NXZ 000000018001044c f i libucrt:output.obj
 0001:0000f528       ?type_case_s@?$output_processor@DV?$stream_output_adapter@D@__crt_stdio_output@@V?$standard_base@DV?$stream_output_adapter@D@__crt_stdio_output@@@2@@__crt_stdio_output@@AEAA_NXZ 0000000180010528 f i libucrt:output.obj
 0001:0000f5b8       ?type_case_s@?$output_processor@_WV?$stream_output_adapter@_W@__crt_stdio_output@@V?$standard_base@_WV?$stream_output_adapter@_W@__crt_stdio_output@@@2@@__crt_stdio_output@@AEAA_NXZ 00000001800105b8 f i libucrt:output.obj
 0001:0000f5b8       ?type_case_s@?$output_processor@_WV?$string_output_adapter@_W@__crt_stdio_output@@V?$standard_base@_WV?$string_output_adapter@_W@__crt_stdio_output@@@2@@__crt_stdio_output@@AEAA_NXZ 00000001800105b8 f i libucrt:output.obj
 0001:0000f680       ?validate_stream_is_ansi_if_required@?$__acrt_stdio_char_traits@D@@SA_NQEAU_iobuf@@@Z 0000000180010680 f i libucrt:output.obj
 0001:0000f70c       ?write_stored_string_tchar@?$output_processor@DV?$stream_output_adapter@D@__crt_stdio_output@@V?$standard_base@DV?$stream_output_adapter@D@__crt_stdio_output@@@2@@__crt_stdio_output@@AEAA_ND@Z 000000018001070c f i libucrt:output.obj
 0001:0000f7e4       ?write_stored_string_tchar@?$output_processor@_WV?$stream_output_adapter@_W@__crt_stdio_output@@V?$standard_base@_WV?$stream_output_adapter@_W@__crt_stdio_output@@@2@@__crt_stdio_output@@AEAA_N_W@Z 00000001800107e4 f i libucrt:output.obj
 0001:0000f8d0       ?write_stored_string_tchar@?$output_processor@_WV?$string_output_adapter@_W@__crt_stdio_output@@V?$standard_base@_WV?$string_output_adapter@_W@__crt_stdio_output@@@2@@__crt_stdio_output@@AEAA_N_W@Z 00000001800108d0 f i libucrt:output.obj
 0001:0000f9c0       ?write_string@?$stream_output_adapter@D@__crt_stdio_output@@QEBAXQEBDHQEAH1@Z 00000001800109c0 f i libucrt:output.obj
 0001:0000fab8       ?write_string@?$stream_output_adapter@_W@__crt_stdio_output@@QEBAXQEB_WHQEAH1@Z 0000000180010ab8 f i libucrt:output.obj
 0001:0000fbc4       ?write_string@?$string_output_adapter@_W@__crt_stdio_output@@QEBAXQEB_WHQEAH1@Z 0000000180010bc4 f i libucrt:output.obj
 0001:0000fc84       __stdio_common_vfprintf    0000000180010c84 f   libucrt:output.obj
 0001:0000fd10       __stdio_common_vfwprintf   0000000180010d10 f   libucrt:output.obj
 0001:0000fd9c       __stdio_common_vswprintf   0000000180010d9c f   libucrt:output.obj
 0001:0000ffd4       __acrt_initialize_new_handler 0000000180010fd4 f   libucrt:new_handler.obj
 0001:0000ffdc       _callnewh                  0000000180010fdc f   libucrt:new_handler.obj
 0001:0001001c       _query_new_handler         000000018001101c f   libucrt:new_handler.obj
 0001:00010050       _initterm                  0000000180011050 f   libucrt:initterm.obj
 0001:000100c8       _initterm_e                00000001800110c8 f   libucrt:initterm.obj
 0001:00010114       _seh_filter_dll            0000000180011114 f   libucrt:exception_filter.obj
 0001:00010128       _seh_filter_exe            0000000180011128 f   libucrt:exception_filter.obj
 0001:000104e8       __acrt_initialize_thread_local_exit_callback 00000001800114e8 f   libucrt:exit.obj
 0001:000104f0       _cexit                     00000001800114f0 f   libucrt:exit.obj
 0001:00010500       _exit                      0000000180011500 f   libucrt:exit.obj
 0001:0001050c       _is_c_termination_complete 000000018001150c f   libucrt:exit.obj
 0001:000106d0       __acrt_allocate_buffer_for_argv 00000001800116d0 f   libucrt:argv_parsing.obj
 0001:00010734       _configure_narrow_argv     0000000180011734 f   libucrt:argv_parsing.obj
 0001:00010a90       __dcrt_uninitialize_environments_nolock 0000000180011a90 f   libucrt:environment_initialization.obj
 0001:00010ac8       _initialize_narrow_environment 0000000180011ac8 f   libucrt:environment_initialization.obj
 0001:00010ad0       ??$?RV<lambda_b8c45f8f788dd370798f47cfe8ac3a86>@@AEAV<lambda_4e60a939b0d047cfe11ddc22648dfba9>@@V<lambda_332c3edc96d0294ec56c57d38c1cdfd5>@@@?$__crt_seh_guarded_call@H@@QEAAH$$QEAV<lambda_b8c45f8f788dd370798f47cfe8ac3a86>@@AEAV<lambda_4e60a939b0d047cfe11ddc22648dfba9>@@$$QEAV<lambda_332c3edc96d0294ec56c57d38c1cdfd5>@@@Z 0000000180011ad0 f i libucrt:onexit.obj
 0001:00010b0c       ??$?RV<lambda_e24bbb7b643b32fcea6fa61b31d4c984>@@AEAV<lambda_275893d493268fdec8709772e3fcec0e>@@V<lambda_9d71df4d7cf3f480f8d633942495c3b0>@@@?$__crt_seh_guarded_call@H@@QEAAH$$QEAV<lambda_e24bbb7b643b32fcea6fa61b31d4c984>@@AEAV<lambda_275893d493268fdec8709772e3fcec0e>@@$$QEAV<lambda_9d71df4d7cf3f480f8d633942495c3b0>@@@Z 0000000180011b0c f i libucrt:onexit.obj
 0001:00010e88       _crt_atexit                0000000180011e88 f   libucrt:onexit.obj
 0001:00010e98       _execute_onexit_table      0000000180011e98 f   libucrt:onexit.obj
 0001:00010ed4       _initialize_onexit_table   0000000180011ed4 f   libucrt:onexit.obj
 0001:00010f14       _register_onexit_function  0000000180011f14 f   libucrt:onexit.obj
 0001:00010f94       __acrt_uninitialize_command_line 0000000180011f94 f   libucrt:argv_data.obj
 0001:00011094       __acrt_initialize          0000000180012094 f   libucrt:initialization.obj
 0001:000110a8       __acrt_thread_attach       00000001800120a8 f   libucrt:initialization.obj
 0001:000110bc       __acrt_thread_detach       00000001800120bc f   libucrt:initialization.obj
 0001:000110cc       __acrt_uninitialize        00000001800120cc f   libucrt:initialization.obj
 0001:000110e0       __acrt_uninitialize_critical 00000001800120e0 f   libucrt:initialization.obj
 0001:000110f0       terminate                  00000001800120f0 f   libucrt:terminate.obj
 0001:00011118       strcpy_s                   0000000180012118 f   libucrt:strcpy_s.obj
 0001:00011178       _free_base                 0000000180012178 f   libucrt:free_base.obj
 0001:000111b8       _malloc_base               00000001800121b8 f   libucrt:malloc_base.obj
 0001:00011218       _calloc_base               0000000180012218 f   libucrt:calloc_base.obj
 0001:00011290       ??$is_overflow_condition@K@__crt_strtox@@YA_NIK@Z 0000000180012290 f i libucrt:atox.obj
 0001:000112bc       ??$parse_integer@KV?$c_string_character_source@D@__crt_strtox@@@__crt_strtox@@YAKQEAU__crt_locale_pointers@@V?$c_string_character_source@D@0@H_N@Z 00000001800122bc f i libucrt:atox.obj
 0001:000115d0       ??$parse_integer@KV?$c_string_character_source@_W@__crt_strtox@@@__crt_strtox@@YAKQEAU__crt_locale_pointers@@V?$c_string_character_source@_W@0@H_N@Z 00000001800125d0 f i libucrt:atox.obj
 0001:00011ca4       __sys_errlist              0000000180012ca4 f   libucrt:syserr.obj
 0001:00011cac       __sys_nerr                 0000000180012cac f   libucrt:syserr.obj
 0001:00011cb4       strncpy_s                  0000000180012cb4 f   libucrt:strncpy_s.obj
 0001:00011d88       ??$?RV<lambda_46352004c1216016012b18bd6f87e700>@@AEAV<lambda_3bd07e1a1191394380780325891bf33f>@@V<lambda_334532d3f185bcaa59b5be82d7d22bff>@@@?$__crt_seh_guarded_call@X@@QEAAX$$QEAV<lambda_46352004c1216016012b18bd6f87e700>@@AEAV<lambda_3bd07e1a1191394380780325891bf33f>@@$$QEAV<lambda_334532d3f185bcaa59b5be82d7d22bff>@@@Z 0000000180012d88 f i libucrt:per_thread_data.obj
 0001:00011de8       ??$?RV<lambda_5e887d1dcbef67a5eb4283622ba103bf>@@AEAV<lambda_4466841279450cc726390878d4a41900>@@V<lambda_341c25c0346d94847f1f3c463c57e077>@@@?$__crt_seh_guarded_call@X@@QEAAX$$QEAV<lambda_5e887d1dcbef67a5eb4283622ba103bf>@@AEAV<lambda_4466841279450cc726390878d4a41900>@@$$QEAV<lambda_341c25c0346d94847f1f3c463c57e077>@@@Z 0000000180012de8 f i libucrt:per_thread_data.obj
 0001:00011e30       ??$?RV<lambda_72d1df2b273a38828b1ce30cbf4cdab5>@@AEAV<lambda_876a65b173b8412d3a47c70a915b0cf4>@@V<lambda_41932305e351933ebe8f8be3ed8bb5dc>@@@?$__crt_seh_guarded_call@X@@QEAAX$$QEAV<lambda_72d1df2b273a38828b1ce30cbf4cdab5>@@AEAV<lambda_876a65b173b8412d3a47c70a915b0cf4>@@$$QEAV<lambda_41932305e351933ebe8f8be3ed8bb5dc>@@@Z 0000000180012e30 f i libucrt:per_thread_data.obj
 0001:00011e70       ??$?RV<lambda_fb3a7dec4e47f37f22dae91bb15c9095>@@AEAV<lambda_698284760c8add0bfb0756c19673e34b>@@V<lambda_dfb8eca1e75fef3034a8fb18dd509707>@@@?$__crt_seh_guarded_call@X@@QEAAX$$QEAV<lambda_fb3a7dec4e47f37f22dae91bb15c9095>@@AEAV<lambda_698284760c8add0bfb0756c19673e34b>@@$$QEAV<lambda_dfb8eca1e75fef3034a8fb18dd509707>@@@Z 0000000180012e70 f i libucrt:per_thread_data.obj
 0001:00012100       __acrt_freeptd             0000000180013100 f   libucrt:per_thread_data.obj
 0001:00012144       __acrt_getptd              0000000180013144 f   libucrt:per_thread_data.obj
 0001:000121d8       __acrt_getptd_noexit       00000001800131d8 f   libucrt:per_thread_data.obj
 0001:00012278       __acrt_initialize_ptd      0000000180013278 f   libucrt:per_thread_data.obj
 0001:000122b4       __acrt_uninitialize_ptd    00000001800132b4 f   libucrt:per_thread_data.obj
 0001:000122d8       _query_app_type            00000001800132d8 f   libucrt:report_runtime_error.obj
 0001:00012408       _itow_s                    0000000180013408 f   libucrt:xtoa.obj
 0001:00012428       _set_error_mode            0000000180013428 f   libucrt:set_error_mode.obj
 0001:00012468       wcscat_s                   0000000180013468 f   libucrt:wcscat_s.obj
 0001:000124e8       wcscpy_s                   00000001800134e8 f   libucrt:wcscpy_s.obj
 0001:00012550       wcsncat_s                  0000000180013550 f   libucrt:wcsncat_s.obj
 0001:00012678       __acrt_show_wide_message_box 0000000180013678 f   libucrt:crtmbox.obj
 0001:00012794       __acrt_stdio_flush_nolock  0000000180013794 f   libucrt:fflush.obj
 0001:0001280c       _fflush_nolock             000000018001380c f   libucrt:fflush.obj
 0001:00012858       _flushall                  0000000180013858 f   libucrt:fflush.obj
 0001:00012948       fflush                     0000000180013948 f   libucrt:fflush.obj
 0001:0001298c       ??$?RV<lambda_7a5ef57ff966f610505f1d28a3d40618>@@AEAV<lambda_b721fa326cdb32351d23dfa67958c160>@@V<lambda_5e0fb27672408a07956fe59e48ccb2aa>@@@?$__crt_seh_guarded_call@H@@QEAAH$$QEAV<lambda_7a5ef57ff966f610505f1d28a3d40618>@@AEAV<lambda_b721fa326cdb32351d23dfa67958c160>@@$$QEAV<lambda_5e0fb27672408a07956fe59e48ccb2aa>@@@Z 000000018001398c f i libucrt:setvbuf.obj
 0001:00012abc       setvbuf                    0000000180013abc f   libucrt:setvbuf.obj
 0001:00012b5c       ??$?RV<lambda_c36588078e9f5dfd39652860aa6b3aaf>@@AEAV<lambda_ec61778202f4f5fc7e7711acc23c3bca>@@V<lambda_dc9d2797ccde5d239b4a0efae8ebd7db>@@@?$__crt_seh_guarded_call@P6AXH@Z@@QEAAP6AXH@Z$$QEAV<lambda_c36588078e9f5dfd39652860aa6b3aaf>@@AEAV<lambda_ec61778202f4f5fc7e7711acc23c3bca>@@$$QEAV<lambda_dc9d2797ccde5d239b4a0efae8ebd7db>@@@Z 0000000180013b5c f i libucrt:signal.obj
 0001:00012ba4       __acrt_get_sigabrt_handler 0000000180013ba4 f   libucrt:signal.obj
 0001:00012bd4       __acrt_initialize_signal_handlers 0000000180013bd4 f   libucrt:signal.obj
 0001:00012bf4       raise                      0000000180013bf4 f   libucrt:signal.obj
 0001:00012ee0       _tolower_l                 0000000180013ee0 f   libucrt:tolower_toupper.obj
 0001:00013020       tolower                    0000000180014020 f   libucrt:tolower_toupper.obj
 0001:0001304c       __acrt_update_locale_info  000000018001404c f   libucrt:locale_update.obj
 0001:00013080       __acrt_update_multibyte_info 0000000180014080 f   libucrt:locale_update.obj
 0001:000130b4       __acrt_set_locale_changed  00000001800140b4 f   libucrt:wsetlocale.obj
 0001:000130c0       __acrt_uninitialize_locale 00000001800140c0 f   libucrt:wsetlocale.obj
 0001:000132a8       __acrt_FlsAlloc            00000001800142a8 f   libucrt:winapi_thunks.obj
 0001:00013300       __acrt_FlsFree             0000000180014300 f   libucrt:winapi_thunks.obj
 0001:00013358       __acrt_FlsGetValue         0000000180014358 f   libucrt:winapi_thunks.obj
 0001:000133b0       __acrt_FlsSetValue         00000001800143b0 f   libucrt:winapi_thunks.obj
 0001:00013418       __acrt_InitializeCriticalSectionEx 0000000180014418 f   libucrt:winapi_thunks.obj
 0001:00013490       __acrt_LCMapStringEx       0000000180014490 f   libucrt:winapi_thunks.obj
 0001:00013580       __acrt_LocaleNameToLCID    0000000180014580 f   libucrt:winapi_thunks.obj
 0001:000135e8       __acrt_MessageBoxW         00000001800145e8 f   libucrt:winapi_thunks.obj
 0001:00013670       __acrt_can_show_message_box 0000000180014670 f   libucrt:winapi_thunks.obj
 0001:000136cc       __acrt_get_parent_window   00000001800146cc f   libucrt:winapi_thunks.obj
 0001:0001375c       __acrt_initialize_winapi_thunks 000000018001475c f   libucrt:winapi_thunks.obj
 0001:00013794       __acrt_is_interactive      0000000180014794 f   libucrt:winapi_thunks.obj
 0001:00013868       __acrt_is_packaged_app     0000000180014868 f   libucrt:winapi_thunks.obj
 0001:000138f0       __acrt_uninitialize_winapi_thunks 00000001800148f0 f   libucrt:winapi_thunks.obj
 0001:00013934       _fcloseall                 0000000180014934 f   libucrt:closeall.obj
 0001:000139e8       __acrt_stdio_free_buffer_nolock 00000001800149e8 f   libucrt:_freebuf.obj
 0001:00013c10       __acrt_initialize_lowio    0000000180014c10 f   libucrt:ioinit.obj
 0001:00013c4c       __acrt_uninitialize_lowio  0000000180014c4c f   libucrt:ioinit.obj
 0001:00013c8c       isdigit                    0000000180014c8c f i libucrt:_ctype.obj
 0001:00013d00       ??$make_c_string_character_source@DPEAPEAD@__crt_strtox@@YA?AV?$c_string_character_source@D@0@QEBDQEAPEAD@Z 0000000180014d00 f i libucrt:strtox.obj
 0001:00013d00       ??$make_c_string_character_source@_WPEAPEA_W@__crt_strtox@@YA?AV?$c_string_character_source@_W@0@QEB_WQEAPEA_W@Z 0000000180014d00 f i libucrt:strtox.obj
 0001:00013d14       strtol                     0000000180014d14 f   libucrt:strtox.obj
 0001:00013d44       wcstol                     0000000180014d44 f   libucrt:strtox.obj
 0001:00013d74       _mbtowc_l                  0000000180014d74 f   libucrt:mbtowc.obj
 0001:00013ebc       mbtowc                     0000000180014ebc f   libucrt:mbtowc.obj
 0001:00013ec4       _wctomb_s_l                0000000180014ec4 f   libucrt:wctomb.obj
 0001:00014048       wctomb_s                   0000000180015048 f   libucrt:wctomb.obj
 0001:0001405c       strnlen                    000000018001505c f   libucrt:strnlen.obj
 0001:000141b8       wcsnlen                    00000001800151b8 f   libucrt:strnlen.obj
 0001:000143a8       ?__acrt_fp_classify@@YA?AW4__acrt_fp_class@@AEBN@Z 00000001800153a8 f i libucrt:cvt.obj
 0001:00014de0       __acrt_fp_format           0000000180015de0 f   libucrt:cvt.obj
 0001:00015024       _fputwc_nolock             0000000180016024 f   libucrt:fputwc.obj
 0001:000151a0       _fileno                    00000001800161a0 f   libucrt:fileno.obj
 0001:000151c8       _fputc_nolock              00000001800161c8 f   libucrt:fputc.obj
 0001:000151e0       _get_printf_count_output   00000001800161e0 f   libucrt:printf_count_output.obj
 0001:000151f8       __acrt_stdio_begin_temporary_buffering_nolock 00000001800161f8 f   libucrt:_sftbuf.obj
 0001:000152c8       __acrt_stdio_end_temporary_buffering_nolock 00000001800162c8 f   libucrt:_sftbuf.obj
 0001:00015304       __acrt_initialize_locks    0000000180016304 f   libucrt:locks.obj
 0001:0001534c       __acrt_lock                000000018001634c f   libucrt:locks.obj
 0001:00015368       __acrt_uninitialize_locks  0000000180016368 f   libucrt:locks.obj
 0001:000153a0       __acrt_unlock              00000001800163a0 f   libucrt:locks.obj
 0001:00015898       ?expand_if_necessary@?$argument_list@D@?A0xca0879c4@@AEAAHXZ 0000000180016898 f i libucrt:argv_wildcards.obj
 0001:00015960       __acrt_expand_narrow_argv_wildcards 0000000180016960 f   libucrt:argv_wildcards.obj
 0001:00015968       ??$?RV<lambda_99476a1ad63dd22509b5d3e65b0ffc95>@@AEAV<lambda_ad1ced32f4ac17aa236e5ef05d6b3b7c>@@V<lambda_f7424dd8d45958661754dc4f2697e9c3>@@@?$__crt_seh_guarded_call@X@@QEAAX$$QEAV<lambda_99476a1ad63dd22509b5d3e65b0ffc95>@@AEAV<lambda_ad1ced32f4ac17aa236e5ef05d6b3b7c>@@$$QEAV<lambda_f7424dd8d45958661754dc4f2697e9c3>@@@Z 0000000180016968 f i libucrt:mbctype.obj
 0001:00016064       __acrt_initialize_multibyte 0000000180017064 f   libucrt:mbctype.obj
 0001:0001608c       __acrt_update_thread_multibyte_data 000000018001708c f   libucrt:mbctype.obj
 0001:0001614c       _setmbcp_nolock            000000018001714c f   libucrt:mbctype.obj
 0001:0001646c       _ismbblead                 000000018001746c f   libucrt:ismbbyte.obj
 0001:00016480       __acrt_initialize_command_line 0000000180017480 f   libucrt:argv_data.obj
 0001:000164a8       __dcrt_get_narrow_environment_from_os 00000001800174a8 f   libucrt:get_environment_from_os.obj
 0001:000165ac       _recalloc                  00000001800175ac f   libucrt:recalloc.obj
 0001:000165b4       _recalloc_base             00000001800175b4 f   libucrt:recalloc.obj
 0001:0001664c       __acrt_initialize_heap     000000018001764c f   libucrt:heap_handle.obj
 0001:00016668       __acrt_uninitialize_heap   0000000180017668 f   libucrt:heap_handle.obj
 0001:00016674       __acrt_execute_initializers 0000000180017674 f   libucrt:shared_initialization.obj
 0001:00016708       __acrt_execute_uninitializers 0000000180017708 f   libucrt:shared_initialization.obj
 0001:00016758       __acrt_has_user_matherr    0000000180017758 f   libucrt:matherr.obj
 0001:00016778       __acrt_initialize_user_matherr 0000000180017778 f   libucrt:matherr.obj
 0001:00016780       __acrt_invoke_user_matherr 0000000180017780 f   libucrt:matherr.obj
 0001:000167c8       _query_new_mode            00000001800177c8 f   libucrt:new_mode.obj
 0001:000167d0       __pctype_func              00000001800177d0 f   libucrt:ctype.obj
 0001:00016800       iswctype                   0000000180017800 f   libucrt:iswctype.obj
 0001:00016870       _isctype_l                 0000000180017870 f   libucrt:isctype.obj
 0001:00016980       _isleadbyte_l              0000000180017980 f i libucrt:_wctype.obj
 0001:000169c0       __acrt_add_locale_ref      00000001800179c0 f   libucrt:locale_refcounting.obj
 0001:00016a4c       __acrt_free_locale         0000000180017a4c f   libucrt:locale_refcounting.obj
 0001:00016bc4       __acrt_locale_add_lc_time_reference 0000000180017bc4 f   libucrt:locale_refcounting.obj
 0001:00016bec       __acrt_locale_free_lc_time_if_unreferenced 0000000180017bec f   libucrt:locale_refcounting.obj
 0001:00016c24       __acrt_locale_release_lc_time_reference 0000000180017c24 f   libucrt:locale_refcounting.obj
 0001:00016c4c       __acrt_release_locale_ref  0000000180017c4c f   libucrt:locale_refcounting.obj
 0001:00016cf4       __acrt_update_thread_locale_data 0000000180017cf4 f   libucrt:locale_refcounting.obj
 0001:00016d64       _updatetlocinfoEx_nolock   0000000180017d64 f   libucrt:locale_refcounting.obj
 0001:00016dcc       ??$?RV<lambda_b521505b218e5242e90febf6bfebc422>@@AEAV<lambda_6978c1fb23f02e42e1d9e99668cc68aa>@@V<lambda_314360699dd331753a4119843814e9a7>@@@?$__crt_seh_guarded_call@H@@QEAAH$$QEAV<lambda_b521505b218e5242e90febf6bfebc422>@@AEAV<lambda_6978c1fb23f02e42e1d9e99668cc68aa>@@$$QEAV<lambda_314360699dd331753a4119843814e9a7>@@@Z 0000000180017dcc f i libucrt:commit.obj
 0001:00016e58       _commit                    0000000180017e58 f   libucrt:commit.obj
 0001:0001748c       _write                     000000018001848c f   libucrt:write.obj
 0001:00017578       _write_nolock              0000000180018578 f   libucrt:write.obj
 0001:00017bb8       __acrt_LCMapStringA        0000000180018bb8 f   libucrt:lcmapstringa.obj
 0001:00017c50       __acrt_locale_free_monetary 0000000180018c50 f   libucrt:initmon.obj
 0001:00017d5c       __acrt_locale_free_numeric 0000000180018d5c f   libucrt:initnum.obj
 0001:00017e20       __acrt_locale_free_time    0000000180018e20 f   libucrt:inittime.obj
 0001:00017f28       __acrt_GetStringTypeA      0000000180018f28 f   libucrt:getstringtypea.obj
 0001:000181a4       __acrt_DownlevelLocaleNameToLCID 00000001800191a4 f   libucrt:lcidtoname_downlevel.obj
 0001:000181d8       _fclose_nolock             00000001800191d8 f   libucrt:fclose.obj
 0001:0001825c       fclose                     000000018001925c f   libucrt:fclose.obj
 0001:000182c8       __acrt_lowio_create_handle_array 00000001800192c8 f   libucrt:osfinfo.obj
 0001:00018360       __acrt_lowio_destroy_handle_array 0000000180019360 f   libucrt:osfinfo.obj
 0001:000183b0       __acrt_lowio_ensure_fh_exists 00000001800193b0 f   libucrt:osfinfo.obj
 0001:00018468       __acrt_lowio_lock_fh       0000000180019468 f   libucrt:osfinfo.obj
 0001:0001848c       __acrt_lowio_unlock_fh     000000018001948c f   libucrt:osfinfo.obj
 0001:000184b0       _free_osfhnd               00000001800194b0 f   libucrt:osfinfo.obj
 0001:0001856c       _get_osfhandle             000000018001956c f   libucrt:osfinfo.obj
 0001:000185e4       __acrt_fp_strflt_to_string 00000001800195e4 f   libucrt:_fptostr.obj
 0001:000186b0       ?divide@__crt_strtox@@YA_KAEAUbig_integer@1@AEBU21@@Z 00000001800196b0 f i libucrt:cfout.obj
 0001:00018b80       __acrt_fltout              0000000180019b80 f   libucrt:cfout.obj
 0001:0001a184       __acrt_stdio_flush_and_write_narrow_nolock 000000018001b184 f   libucrt:_flsbuf.obj
 0001:0001a26c       __acrt_stdio_flush_and_write_wide_nolock 000000018001b26c f   libucrt:_flsbuf.obj
 0001:0001a358       _isatty                    000000018001b358 f   libucrt:isatty.obj
 0001:0001a490       qsort                      000000018001b490 f   libucrt:qsort.obj
 0001:0001a7c4       strpbrk                    000000018001b7c4 f   libucrt:strpbrk.obj
 0001:0001a864       _mbsdec                    000000018001b864 f   libucrt:mbsdec.obj
 0001:0001a86c       _mbsdec_l                  000000018001b86c f   libucrt:mbsdec.obj
 0001:0001a91c       _msize                     000000018001b91c f   libucrt:msize.obj
 0001:0001a958       _realloc_base              000000018001b958 f   libucrt:realloc_base.obj
 0001:0001ab68       _lseeki64                  000000018001bb68 f   libucrt:lseek.obj
 0001:0001ab70       _lseeki64_nolock           000000018001bb70 f   libucrt:lseek.obj
 0001:0001ab78       _putwch_nolock             000000018001bb78 f   libucrt:putwch.obj
 0001:0001abd4       __strncnt                  000000018001bbd4 f   libucrt:strncnt.obj
 0001:0001abec       ??$?RV<lambda_bfedae4ebbf01fab1bb6dcc6a9e276e0>@@AEAV<lambda_2fe9b910cf3cbf4a0ab98a02ba45b3ec>@@V<lambda_237c231691f317818eb88cc1d5d642d6>@@@?$__crt_seh_guarded_call@H@@QEAAH$$QEAV<lambda_bfedae4ebbf01fab1bb6dcc6a9e276e0>@@AEAV<lambda_2fe9b910cf3cbf4a0ab98a02ba45b3ec>@@$$QEAV<lambda_237c231691f317818eb88cc1d5d642d6>@@@Z 000000018001bbec f i libucrt:close.obj
 0001:0001ac60       _close                     000000018001bc60 f   libucrt:close.obj
 0001:0001ad04       _close_nolock              000000018001bd04 f   libucrt:close.obj
 0001:0001adc0       ?__acrt_stdio_free_stream@@YAXV__crt_stdio_stream@@@Z 000000018001bdc0 f   libucrt:stream.obj
 0001:0001ae04       fegetenv                   000000018001be04 f   libucrt:fegetenv.obj
 0001:0001ae24       fesetenv                   000000018001be24 f   libucrt:fesetenv.obj
 0001:0001ae70       feholdexcept               000000018001be70 f   libucrt:feholdexcept.obj
 0001:0001aec0       ceil                       000000018001bec0 f   libucrt:ceil.obj
 0001:0001af90       log10                      000000018001bf90 f   libucrt:log10.obj
 0001:0001b53c       __acrt_stdio_allocate_buffer_nolock 000000018001c53c f   libucrt:_getbuf.obj
 0001:0001b5a0       __dcrt_lowio_initialize_console_output 000000018001c5a0 f   libucrt:initcon.obj
 0001:0001b5dc       __dcrt_terminate_console_output 000000018001c5dc f   libucrt:initcon.obj
 0001:0001b5fc       _getfpcontrolword          000000018001c5fc f   libucrt:_fenvutils.obj
 0001:0001b614       _getfpstatusword           000000018001c614 f   libucrt:_fenvutils.obj
 0001:0001b628       _setfpcontrolword          000000018001c628 f   libucrt:_fenvutils.obj
 0001:0001b634       _setfpstatusword           000000018001c634 f   libucrt:_fenvutils.obj
 0001:0001b684       _clearfp                   000000018001c684 f   libucrt:ieee.obj
 0001:0001b6d8       _controlfp                 000000018001c6d8 f   libucrt:ieee.obj
 0001:0001b6e4       _statusfp                  000000018001c6e4 f   libucrt:ieee.obj
 0001:0001bae8       _handle_error              000000018001cae8 f   libucrt:libm_error.obj
 0001:0001bc10       _handle_nan                000000018001cc10 f   libucrt:libm_error.obj
 0001:0001bc30       __acrt_initialize_fma3     000000018001cc30 f   libucrt:fma3_available.obj
 0001:0001bca0       _log10_special             000000018001cca0 f   libucrt:log_special.obj
 0001:0001bd70       _get_fpsr                  000000018001cd70 f   libucrt:fpsr.obj
 0001:0001bd80       _set_fpsr                  000000018001cd80 f   libucrt:fpsr.obj
 0001:0001bd8a       _fclrf                     000000018001cd8a f   libucrt:fpsr.obj
 0001:0001bd9e       _frnd                      000000018001cd9e f   libucrt:fpsr.obj
 0001:0001bdc0       _raise_exc                 000000018001cdc0 f   libucrt:fpexcept.obj
 0001:0001bde8       _raise_exc_ex              000000018001cde8 f   libucrt:fpexcept.obj
 0001:0001c0f0       _set_errno_from_matherr    000000018001d0f0 f   libucrt:fpexcept.obj
 0001:0001c120       _clrfp                     000000018001d120 f   libucrt:fpctrl.obj
 0001:0001c140       _ctrlfp                    000000018001d140 f   libucrt:fpctrl.obj
 0001:0001c1bc       _set_statfp                000000018001d1bc f   libucrt:fpctrl.obj
 0001:0001c1dc       _statfp                    000000018001d1dc f   libucrt:fpctrl.obj
 0001:0001c1ee       IsProcessorFeaturePresent  000000018001d1ee f   kernel32:KERNEL32.dll
 0001:0001c1f4       RtlUnwindEx                000000018001d1f4 f   kernel32:KERNEL32.dll
 0001:0001c200       _FindPESection             000000018001d200 f   LIBCMT:pesect.obj
 0001:0001c250       _IsNonwritableInCurrentImage 000000018001d250 f   LIBCMT:pesect.obj
 0001:0001c2a0       _ValidateImageBase         000000018001d2a0 f   LIBCMT:pesect.obj
 0001:0001c2d0       __GSHandlerCheck           000000018001d2d0 f   LIBCMT:_gshandler_.obj
 0001:0001c2f0       __GSHandlerCheckCommon     000000018001d2f0 f   LIBCMT:_gshandler_.obj
 0001:0001c360       __chkstk                   000000018001d360 f   LIBCMT:_chkstk_.obj
 0001:0001c360       _alloca_probe              000000018001d360 f   LIBCMT:_chkstk_.obj
 0001:0001c3d0       memcmp                     000000018001d3d0 f   libvcruntime:memcmp.obj
 0001:0001c498       strrchr                    000000018001d498 f   libvcruntime:strrchr.obj
 0001:0001c5d8       __GSHandlerCheck_EH        000000018001d5d8 f   LIBCMT:gshandlereh.obj
 0001:0001c670       _guard_dispatch_icall_nop  000000018001d670 f   LIBCMT:_guard_dispatch_.obj
 0002:00000000       __imp_SetFilePointerEx     000000018001e000     kernel32:KERNEL32.dll
 0002:00000008       __imp_HeapReAlloc          000000018001e008     kernel32:KERNEL32.dll
 0002:00000010       __imp_HeapSize             000000018001e010     kernel32:KERNEL32.dll
 0002:00000018       __imp_SetStdHandle         000000018001e018     kernel32:KERNEL32.dll
 0002:00000020       __imp_GetConsoleMode       000000018001e020     kernel32:KERNEL32.dll
 0002:00000028       __imp_GetConsoleCP         000000018001e028     kernel32:KERNEL32.dll
 0002:00000030       __imp_FlushFileBuffers     000000018001e030     kernel32:KERNEL32.dll
 0002:00000038       __imp_GetStringTypeW       000000018001e038     kernel32:KERNEL32.dll
 0002:00000040       __imp_GetProcessHeap       000000018001e040     kernel32:KERNEL32.dll
 0002:00000048       __imp_FreeEnvironmentStringsW 000000018001e048     kernel32:KERNEL32.dll
 0002:00000050       __imp_GetEnvironmentStringsW 000000018001e050     kernel32:KERNEL32.dll
 0002:00000058       __imp_GetCommandLineW      000000018001e058     kernel32:KERNEL32.dll
 0002:00000060       __imp_GetCommandLineA      000000018001e060     kernel32:KERNEL32.dll
 0002:00000068       __imp_GetCPInfo            000000018001e068     kernel32:KERNEL32.dll
 0002:00000070       __imp_GetOEMCP             000000018001e070     kernel32:KERNEL32.dll
 0002:00000078       __imp_IsValidCodePage      000000018001e078     kernel32:KERNEL32.dll
 0002:00000080       __imp_FindNextFileA        000000018001e080     kernel32:KERNEL32.dll
 0002:00000088       __imp_FindFirstFileExA     000000018001e088     kernel32:KERNEL32.dll
 0002:00000090       __imp_FindClose            000000018001e090     kernel32:KERNEL32.dll
 0002:00000098       __imp_LCMapStringW         000000018001e098     kernel32:KERNEL32.dll
 0002:000000a0       __imp_GetACP               000000018001e0a0     kernel32:KERNEL32.dll
 0002:000000a8       __imp_CreateThread         000000018001e0a8     kernel32:KERNEL32.dll
 0002:000000b0       __imp_WaitForSingleObjectEx 000000018001e0b0     kernel32:KERNEL32.dll
 0002:000000b8       __imp_CloseHandle          000000018001e0b8     kernel32:KERNEL32.dll
 0002:000000c0       __imp_OutputDebugStringW   000000018001e0c0     kernel32:KERNEL32.dll
 0002:000000c8       __imp_WriteFile            000000018001e0c8     kernel32:KERNEL32.dll
 0002:000000d0       __imp_HeapAlloc            000000018001e0d0     kernel32:KERNEL32.dll
 0002:000000d8       __imp_HeapFree             000000018001e0d8     kernel32:KERNEL32.dll
 0002:000000e0       __imp_WideCharToMultiByte  000000018001e0e0     kernel32:KERNEL32.dll
 0002:000000e8       __imp_MultiByteToWideChar  000000018001e0e8     kernel32:KERNEL32.dll
 0002:000000f0       __imp_ExitProcess          000000018001e0f0     kernel32:KERNEL32.dll
 0002:000000f8       __imp_WriteConsoleW        000000018001e0f8     kernel32:KERNEL32.dll
 0002:00000100       __imp_GetModuleHandleExW   000000018001e100     kernel32:KERNEL32.dll
 0002:00000108       __imp_GetModuleFileNameW   000000018001e108     kernel32:KERNEL32.dll
 0002:00000110       __imp_SystemTimeToFileTime 000000018001e110     kernel32:KERNEL32.dll
 0002:00000118       __imp_GetSystemTime        000000018001e118     kernel32:KERNEL32.dll
 0002:00000120       __imp_RtlCaptureContext    000000018001e120     kernel32:KERNEL32.dll
 0002:00000128       __imp_RtlLookupFunctionEntry 000000018001e128     kernel32:KERNEL32.dll
 0002:00000130       __imp_RtlVirtualUnwind     000000018001e130     kernel32:KERNEL32.dll
 0002:00000138       __imp_UnhandledExceptionFilter 000000018001e138     kernel32:KERNEL32.dll
 0002:00000140       __imp_SetUnhandledExceptionFilter 000000018001e140     kernel32:KERNEL32.dll
 0002:00000148       __imp_GetCurrentProcess    000000018001e148     kernel32:KERNEL32.dll
 0002:00000150       __imp_TerminateProcess     000000018001e150     kernel32:KERNEL32.dll
 0002:00000158       __imp_IsProcessorFeaturePresent 000000018001e158     kernel32:KERNEL32.dll
 0002:00000160       __imp_QueryPerformanceCounter 000000018001e160     kernel32:KERNEL32.dll
 0002:00000168       __imp_GetCurrentProcessId  000000018001e168     kernel32:KERNEL32.dll
 0002:00000170       __imp_GetCurrentThreadId   000000018001e170     kernel32:KERNEL32.dll
 0002:00000178       __imp_GetSystemTimeAsFileTime 000000018001e178     kernel32:KERNEL32.dll
 0002:00000180       __imp_InitializeSListHead  000000018001e180     kernel32:KERNEL32.dll
 0002:00000188       __imp_IsDebuggerPresent    000000018001e188     kernel32:KERNEL32.dll
 0002:00000190       __imp_GetStartupInfoW      000000018001e190     kernel32:KERNEL32.dll
 0002:00000198       __imp_GetModuleHandleW     000000018001e198     kernel32:KERNEL32.dll
 0002:000001a0       __imp_RtlPcToFileHeader    000000018001e1a0     kernel32:KERNEL32.dll
 0002:000001a8       __imp_EncodePointer        000000018001e1a8     kernel32:KERNEL32.dll
 0002:000001b0       __imp_RaiseException       000000018001e1b0     kernel32:KERNEL32.dll
 0002:000001b8       __imp_RtlUnwindEx          000000018001e1b8     kernel32:KERNEL32.dll
 0002:000001c0       __imp_InterlockedFlushSList 000000018001e1c0     kernel32:KERNEL32.dll
 0002:000001c8       __imp_GetLastError         000000018001e1c8     kernel32:KERNEL32.dll
 0002:000001d0       __imp_SetLastError         000000018001e1d0     kernel32:KERNEL32.dll
 0002:000001d8       __imp_EnterCriticalSection 000000018001e1d8     kernel32:KERNEL32.dll
 0002:000001e0       __imp_LeaveCriticalSection 000000018001e1e0     kernel32:KERNEL32.dll
 0002:000001e8       __imp_DeleteCriticalSection 000000018001e1e8     kernel32:KERNEL32.dll
 0002:000001f0       __imp_InitializeCriticalSectionAndSpinCount 000000018001e1f0     kernel32:KERNEL32.dll
 0002:000001f8       __imp_TlsAlloc             000000018001e1f8     kernel32:KERNEL32.dll
 0002:00000200       __imp_TlsGetValue          000000018001e200     kernel32:KERNEL32.dll
 0002:00000208       __imp_TlsSetValue          000000018001e208     kernel32:KERNEL32.dll
 0002:00000210       __imp_TlsFree              000000018001e210     kernel32:KERNEL32.dll
 0002:00000218       __imp_FreeLibrary          000000018001e218     kernel32:KERNEL32.dll
 0002:00000220       __imp_GetProcAddress       000000018001e220     kernel32:KERNEL32.dll
 0002:00000228       __imp_LoadLibraryExW       000000018001e228     kernel32:KERNEL32.dll
 0002:00000230       __imp_GetStdHandle         000000018001e230     kernel32:KERNEL32.dll
 0002:00000238       __imp_GetFileType          000000018001e238     kernel32:KERNEL32.dll
 0002:00000240       __imp_GetModuleFileNameA   000000018001e240     kernel32:KERNEL32.dll
 0002:00000248       __imp_CreateFileW          000000018001e248     kernel32:KERNEL32.dll
 0002:00000250       \177KERNEL32_NULL_THUNK_DATA 000000018001e250     kernel32:KERNEL32.dll
 0002:00000258       __imp_node_module_register 000000018001e258     iojs:node.dll
 0002:00000260       __imp_?New@ObjectTemplate@v8@@SA?AV?$Local@VObjectTemplate@v8@@@2@PEAVIsolate@2@V?$Local@VFunctionTemplate@v8@@@2@@Z 000000018001e260     iojs:node.dll
 0002:00000268       __imp_?NewInstance@ObjectTemplate@v8@@QEAA?AV?$MaybeLocal@VObject@v8@@@2@V?$Local@VContext@v8@@@2@@Z 000000018001e268     iojs:node.dll
 0002:00000270       __imp_?SetInternalFieldCount@ObjectTemplate@v8@@QEAAXH@Z 000000018001e270     iojs:node.dll
 0002:00000278       __imp_?Set@Object@v8@@QEAA?AV?$Maybe@_N@2@V?$Local@VContext@v8@@@2@V?$Local@VValue@v8@@@2@1@Z 000000018001e278     iojs:node.dll
 0002:00000280       __imp_?SetInternalField@Object@v8@@QEAAXHV?$Local@VValue@v8@@@2@@Z 000000018001e280     iojs:node.dll
 0002:00000288       __imp_?SlowGetInternalField@Object@v8@@AEAA?AV?$Local@VValue@v8@@@2@H@Z 000000018001e288     iojs:node.dll
 0002:00000290       __imp_?New@FunctionTemplate@v8@@SA?AV?$Local@VFunctionTemplate@v8@@@2@PEAVIsolate@2@P6AXAEBV?$FunctionCallbackInfo@VValue@v8@@@2@@ZV?$Local@VValue@v8@@@2@V?$Local@VSignature@v8@@@2@HW4ConstructorBehavior@2@@Z 000000018001e290     iojs:node.dll
 0002:00000298       __imp_?GetFunction@FunctionTemplate@v8@@QEAA?AV?$MaybeLocal@VFunction@v8@@@2@V?$Local@VContext@v8@@@2@@Z 000000018001e298     iojs:node.dll
 0002:000002a0       __imp_?CreateHandle@HandleScope@v8@@CAPEAPEAVObject@internal@2@PEAVHeapObject@42@PEAV342@@Z 000000018001e2a0     iojs:node.dll
 0002:000002a8       __imp_?New@External@v8@@SA?AV?$Local@VExternal@v8@@@2@PEAVIsolate@2@PEAX@Z 000000018001e2a8     iojs:node.dll
 0002:000002b0       __imp_?Value@External@v8@@QEBAPEAXXZ 000000018001e2b0     iojs:node.dll
 0002:000002b8       __imp_?ToObject@Value@v8@@QEBA?AV?$Local@VObject@v8@@@2@XZ 000000018001e2b8     iojs:node.dll
 0002:000002c0       __imp_?Length@Buffer@node@@YA_KV?$Local@VValue@v8@@@v8@@@Z 000000018001e2c0     iojs:node.dll
 0002:000002c8       __imp_?Data@Buffer@node@@YAPEADV?$Local@VValue@v8@@@v8@@@Z 000000018001e2c8     iojs:node.dll
 0002:000002d0       __imp_?New@Buffer@node@@YA?AV?$MaybeLocal@VObject@v8@@@v8@@PEAVIsolate@4@_K@Z 000000018001e2d0     iojs:node.dll
 0002:000002d8       __imp_?Get@Object@v8@@QEAA?AV?$Local@VValue@v8@@@2@V32@@Z 000000018001e2d8     iojs:node.dll
 0002:000002e0       __imp_?Uint32Value@Value@v8@@QEBAIXZ 000000018001e2e0     iojs:node.dll
 0002:000002e8       __imp_?ThrowException@Isolate@v8@@QEAA?AV?$Local@VValue@v8@@@2@V32@@Z 000000018001e2e8     iojs:node.dll
 0002:000002f0       __imp_uv_default_loop      000000018001e2f0     iojs:node.dll
 0002:000002f8       __imp_?MakeCallback@node@@YA?AV?$Local@VValue@v8@@@v8@@PEAVIsolate@3@V?$Local@VObject@v8@@@3@V?$Local@VFunction@v8@@@3@HPEAV23@@Z 000000018001e2f8     iojs:node.dll
 0002:00000300       __imp_?Set@Object@v8@@QEAA_NV?$Local@VValue@v8@@@2@0@Z 000000018001e300     iojs:node.dll
 0002:00000308       __imp_?New@Object@v8@@SA?AV?$Local@VObject@v8@@@2@PEAVIsolate@2@@Z 000000018001e308     iojs:node.dll
 0002:00000310       __imp_?ToInteger@Value@v8@@QEBA?AV?$MaybeLocal@VInteger@v8@@@2@V?$Local@VContext@v8@@@2@@Z 000000018001e310     iojs:node.dll
 0002:00000318       __imp_?NumberValue@Value@v8@@QEBANXZ 000000018001e318     iojs:node.dll
 0002:00000320       __imp_?IntegerValue@Value@v8@@QEBA_JXZ 000000018001e320     iojs:node.dll
 0002:00000328       __imp_?GlobalizeReference@V8@v8@@CAPEAPEAVObject@internal@2@PEAVIsolate@42@PEAPEAV342@@Z 000000018001e328     iojs:node.dll
 0002:00000330       __imp_?DisposeGlobal@V8@v8@@CAXPEAPEAVObject@internal@2@@Z 000000018001e330     iojs:node.dll
 0002:00000338       __imp_??0HandleScope@v8@@QEAA@PEAVIsolate@1@@Z 000000018001e338     iojs:node.dll
 0002:00000340       __imp_?CreateHandle@HandleScope@v8@@KAPEAPEAVObject@internal@2@PEAVIsolate@42@PEAV342@@Z 000000018001e340     iojs:node.dll
 0002:00000348       __imp_?GetCurrentContext@Isolate@v8@@QEAA?AV?$Local@VContext@v8@@@2@XZ 000000018001e348     iojs:node.dll
 0002:00000350       __imp_?New@Integer@v8@@SA?AV?$Local@VInteger@v8@@@2@PEAVIsolate@2@H@Z 000000018001e350     iojs:node.dll
 0002:00000358       __imp_?NewFromUnsigned@Integer@v8@@SA?AV?$Local@VInteger@v8@@@2@PEAVIsolate@2@I@Z 000000018001e358     iojs:node.dll
 0002:00000360       __imp_?Global@Context@v8@@QEAA?AV?$Local@VObject@v8@@@2@XZ 000000018001e360     iojs:node.dll
 0002:00000368       __imp_uv_queue_work        000000018001e368     iojs:node.dll
 0002:00000370       __imp_??1EscapableHandleScope@v8@@QEAA@XZ 000000018001e370     iojs:node.dll
 0002:00000378       __imp_?NewFromUtf8@String@v8@@SA?AV?$MaybeLocal@VString@v8@@@2@PEAVIsolate@2@PEBDW4NewStringType@2@H@Z 000000018001e378     iojs:node.dll
 0002:00000380       __imp_??0EscapableHandleScope@v8@@QEAA@PEAVIsolate@1@@Z 000000018001e380     iojs:node.dll
 0002:00000388       __imp_?Escape@EscapableHandleScope@v8@@AEAAPEAPEAVObject@internal@2@PEAPEAV342@@Z 000000018001e388     iojs:node.dll
 0002:00000390       __imp_?ToLocalEmpty@V8@v8@@CAXXZ 000000018001e390     iojs:node.dll
 0002:00000398       __imp_?Error@Exception@v8@@SA?AV?$Local@VValue@v8@@@2@V?$Local@VString@v8@@@2@@Z 000000018001e398     iojs:node.dll
 0002:000003a0       __imp_??1HandleScope@v8@@QEAA@XZ 000000018001e3a0     iojs:node.dll
 0002:000003a8       __imp_?GetCurrent@Isolate@v8@@SAPEAV12@XZ 000000018001e3a8     iojs:node.dll
 0002:000003b0       \177node_NULL_THUNK_DATA   000000018001e3b0     iojs:node.dll
 0002:000003b8       __guard_check_icall_fptr   000000018001e3b8     LIBCMT:guard_support.obj
 0002:000003c0       __guard_dispatch_icall_fptr 000000018001e3c0     LIBCMT:guard_support.obj
 0002:000003c8       __xc_a                     000000018001e3c8     LIBCMT:initializers.obj
 0002:000003d0       _register_scrypt_          000000018001e3d0     scrypt_node.obj
 0002:000003d8       __xc_z                     000000018001e3d8     LIBCMT:initializers.obj
 0002:000003e0       __xi_a                     000000018001e3e0     LIBCMT:initializers.obj
 0002:000003e8       __acrt_stdio_initializer   000000018001e3e8     libucrt:stdio_initializer.obj
 0002:000003f0       __acrt_multibyte_initializer 000000018001e3f0     libucrt:multibyte_initializer.obj
 0002:000003f8       __acrt_tran_fma3_initializer 000000018001e3f8     libucrt:fma3_initializer.obj
 0002:00000400       __xi_z                     000000018001e400     LIBCMT:initializers.obj
 0002:00000408       __xp_a                     000000018001e408     LIBCMT:initializers.obj
 0002:00000410       __acrt_locale_terminator   000000018001e410     libucrt:locale_initializer.obj
 0002:00000418       __dcrt_console_output_terminator 000000018001e418     libucrt:console_output_initializer.obj
 0002:00000420       __acrt_stdio_terminator    000000018001e420     libucrt:stdio_initializer.obj
 0002:00000428       __xp_z                     000000018001e428     LIBCMT:initializers.obj
 0002:00000430       __xt_a                     000000018001e430     LIBCMT:initializers.obj
 0002:00000438       __xt_z                     000000018001e438     LIBCMT:initializers.obj
 0002:00000448       ??_7exception@std@@6B@     000000018001e448     libcpmt:xthrow.obj
 0002:00000458       ??_C@_0BC@EOODALEL@Unknown?5exception?$AA@ 000000018001e458     libcpmt:xthrow.obj
 0002:00000478       ??_7bad_alloc@std@@6B@     000000018001e478     libcpmt:xthrow.obj
 0002:00000488       ??_C@_0P@GHFPNOJB@bad?5allocation?$AA@ 000000018001e488     libcpmt:xthrow.obj
 0002:000004a0       ??_7logic_error@std@@6B@   000000018001e4a0     libcpmt:xthrow.obj
 0002:000004b8       ??_7length_error@std@@6B@  000000018001e4b8     libcpmt:xthrow.obj
 0002:000004d0       ??_7out_of_range@std@@6B@  000000018001e4d0     libcpmt:xthrow.obj
 0002:000004e0       _pRawDllMain               000000018001e4e0     LIBCMT:dll_dllmain.obj
 0002:000004e0       _pDefaultRawDllMain        000000018001e4e0     LIBCMT:dll_dllmain.obj
 0002:000004f0       ??_7type_info@@6B@         000000018001e4f0     LIBCMT:std_type_info_static.obj
 0002:00000510       ??_7bad_array_new_length@std@@6B@ 000000018001e510     LIBCMT:throw_bad_alloc.obj
 0002:00000520       ??_C@_0BF@KINCDENJ@bad?5array?5new?5length?$AA@ 000000018001e520     LIBCMT:throw_bad_alloc.obj
 0002:00000538       _pDestructExceptionObject  000000018001e538     libvcruntime:frame.obj
 0002:00000548       ??_7bad_exception@std@@6B@ 000000018001e548     libvcruntime:frame.obj
 0002:00000558       ??_C@_0O@DPKOEFFH@bad?5exception?$AA@ 000000018001e558     libvcruntime:frame.obj
 0002:00000668       ??_C@_1BC@DNHGCMLG@?$AAa?$AAd?$AAv?$AAa?$AAp?$AAi?$AA3?$AA2?$AA?$AA@ 000000018001e668     libvcruntime:winapi_downlevel.obj
 0002:00000680       ??_C@_1DM@KHCHBNEB@?$AAa?$AAp?$AAi?$AA?9?$AAm?$AAs?$AA?9?$AAw?$AAi?$AAn?$AA?9?$AAc?$AAo?$AAr?$AAe?$AA?9?$AAf?$AAi?$AAb?$AAe?$AAr?$AAs?$AA?9?$AAl?$AA1?$AA?9?$AA1?$AA?9?$AA1?$AA?$AA@ 000000018001e680     libvcruntime:winapi_downlevel.obj
 0002:000006c0       ??_C@_1DK@LPPGFMPP@?$AAa?$AAp?$AAi?$AA?9?$AAm?$AAs?$AA?9?$AAw?$AAi?$AAn?$AA?9?$AAc?$AAo?$AAr?$AAe?$AA?9?$AAs?$AAy?$AAn?$AAc?$AAh?$AA?9?$AAl?$AA1?$AA?9?$AA2?$AA?9?$AA0?$AA?$AA@ 000000018001e6c0     libvcruntime:winapi_downlevel.obj
 0002:00000700       ??_C@_1BC@GDMECMAK@?$AAk?$AAe?$AAr?$AAn?$AAe?$AAl?$AA3?$AA2?$AA?$AA@ 000000018001e700     libvcruntime:winapi_downlevel.obj
 0002:00000720       ??_C@_08KNHFBNJ@FlsAlloc?$AA@ 000000018001e720     libvcruntime:winapi_downlevel.obj
 0002:00000738       ??_C@_07PEJMOBNF@FlsFree?$AA@ 000000018001e738     libvcruntime:winapi_downlevel.obj
 0002:00000748       ??_C@_0M@GDNOONDI@FlsGetValue?$AA@ 000000018001e748     libvcruntime:winapi_downlevel.obj
 0002:00000760       ??_C@_0M@JCPCPOEF@FlsSetValue?$AA@ 000000018001e760     libvcruntime:winapi_downlevel.obj
 0002:00000778       ??_C@_0BM@HCFOFFN@InitializeCriticalSectionEx?$AA@ 000000018001e778     libvcruntime:winapi_downlevel.obj
 0002:00000ac0       ??_C@_08EHJDFFNH@__based?$CI?$AA@ 000000018001eac0     libvcruntime:undname.obj
 0002:00000ad0       ??_C@_07KOLFKCDI@__cdecl?$AA@ 000000018001ead0     libvcruntime:undname.obj
 0002:00000ad8       ??_C@_08GHMPAG@__pascal?$AA@ 000000018001ead8     libvcruntime:undname.obj
 0002:00000ae8       ??_C@_09IFJBGAPI@__stdcall?$AA@ 000000018001eae8     libvcruntime:undname.obj
 0002:00000af8       ??_C@_0L@NPHFGOKO@__thiscall?$AA@ 000000018001eaf8     libvcruntime:undname.obj
 0002:00000b08       ??_C@_0L@JMKHOMEK@__fastcall?$AA@ 000000018001eb08     libvcruntime:undname.obj
 0002:00000b18       ??_C@_0N@BCKKPABJ@__vectorcall?$AA@ 000000018001eb18     libvcruntime:undname.obj
 0002:00000b28       ??_C@_09HIJEGCPM@__clrcall?$AA@ 000000018001eb28     libvcruntime:undname.obj
 0002:00000b34       ??_C@_06GHPCKEAG@__eabi?$AA@ 000000018001eb34     libvcruntime:undname.obj
 0002:00000b40       ??_C@_07JOMMBBKO@__ptr64?$AA@ 000000018001eb40     libvcruntime:undname.obj
 0002:00000b48       ??_C@_0L@PILCLIHE@__restrict?$AA@ 000000018001eb48     libvcruntime:undname.obj
 0002:00000b58       ??_C@_0M@GFIIJFMG@__unaligned?$AA@ 000000018001eb58     libvcruntime:undname.obj
 0002:00000b68       ??_C@_09DHDLOLLB@restrict?$CI?$AA@ 000000018001eb68     libvcruntime:undname.obj
 0002:00000b72       ??_C@_00CNPNBAHC@?$AA@     000000018001eb72     libvcruntime:undname.obj
 0002:00000b74       ??_C@_04NIHEBCM@?5new?$AA@ 000000018001eb74     libvcruntime:undname.obj
 0002:00000b80       ??_C@_07FPCDHGMM@?5delete?$AA@ 000000018001eb80     libvcruntime:undname.obj
 0002:00000b88       ??_C@_01NEMOKFLO@?$DN?$AA@ 000000018001eb88     libvcruntime:undname.obj
 0002:00000b8c       ??_C@_02GPIOPFAK@?$DO?$DO?$AA@ 000000018001eb8c     libvcruntime:undname.obj
 0002:00000b90       ??_C@_02FODMEDOG@?$DM?$DM?$AA@ 000000018001eb90     libvcruntime:undname.obj
 0002:00000b94       ??_C@_01DCLJPIOD@?$CB?$AA@ 000000018001eb94     libvcruntime:undname.obj
 0002:00000b98       ??_C@_02EGOFBIJA@?$DN?$DN?$AA@ 000000018001eb98     libvcruntime:undname.obj
 0002:00000b9c       ??_C@_02FDNJECIE@?$CB?$DN?$AA@ 000000018001eb9c     libvcruntime:undname.obj
 0002:00000ba0       ??_C@_02GPECMEKF@?$FL?$FN?$AA@ 000000018001eba0     libvcruntime:undname.obj
 0002:00000ba8       ??_C@_08LHJFAFGD@operator?$AA@ 000000018001eba8     libvcruntime:undname.obj
 0002:00000bb4       ??_C@_02HBOOOICD@?9?$DO?$AA@ 000000018001ebb4     libvcruntime:undname.obj
 0002:00000bb8       ??_C@_01NBENCBCI@?$CK?$AA@ 000000018001ebb8     libvcruntime:undname.obj
 0002:00000bbc       ??_C@_02ECNGHCIF@?$CL?$CL?$AA@ 000000018001ebbc     libvcruntime:undname.obj
 0002:00000bc0       ??_C@_02BAABKJLB@?9?9?$AA@ 000000018001ebc0     libvcruntime:undname.obj
 0002:00000bc4       ??_C@_01JOAMLHOP@?9?$AA@   000000018001ebc4     libvcruntime:undname.obj
 0002:00000bc8       ??_C@_01MIFGBAGJ@?$CL?$AA@ 000000018001ebc8     libvcruntime:undname.obj
 0002:00000bcc       ??_C@_01HNPIGOCE@?$CG?$AA@ 000000018001ebcc     libvcruntime:undname.obj
 0002:00000bd0       ??_C@_03MNHNFDLC@?9?$DO?$CK?$AA@ 000000018001ebd0     libvcruntime:undname.obj
 0002:00000bd4       ??_C@_01KMDKNFGN@?1?$AA@   000000018001ebd4     libvcruntime:undname.obj
 0002:00000bd8       ??_C@_01FGNFDNOH@?$CF?$AA@ 000000018001ebd8     libvcruntime:undname.obj
 0002:00000bdc       ??_C@_01MNNFJEPP@?$DM?$AA@ 000000018001ebdc     libvcruntime:undname.obj
 0002:00000be0       ??_C@_02EHCHHCKH@?$DM?$DN?$AA@ 000000018001ebe0     libvcruntime:undname.obj
 0002:00000be4       ??_C@_01PPODPGHN@?$DO?$AA@ 000000018001ebe4     libvcruntime:undname.obj
 0002:00000be8       ??_C@_02EEKDKGMJ@?$DO?$DN?$AA@ 000000018001ebe8     libvcruntime:undname.obj
 0002:00000bec       ??_C@_01IHBHIGKO@?0?$AA@   000000018001ebec     libvcruntime:undname.obj
 0002:00000bf0       ??_C@_02HCKGKOFO@?$CI?$CJ?$AA@ 000000018001ebf0     libvcruntime:undname.obj
 0002:00000bf4       ??_C@_01PJKLJHI@?$HO?$AA@  000000018001ebf4     libvcruntime:undname.obj
 0002:00000bf8       ??_C@_01JKBOJNNK@?$FO?$AA@ 000000018001ebf8     libvcruntime:undname.obj
 0002:00000bfc       ??_C@_01DNKMNLPK@?$HM?$AA@ 000000018001ebfc     libvcruntime:undname.obj
 0002:00000c00       ??_C@_02PPKAJPJL@?$CG?$CG?$AA@ 000000018001ec00     libvcruntime:undname.obj
 0002:00000c04       ??_C@_02NONPIBCD@?$HM?$HM?$AA@ 000000018001ec04     libvcruntime:undname.obj
 0002:00000c08       ??_C@_02FPIMKNGF@?$CK?$DN?$AA@ 000000018001ec08     libvcruntime:undname.obj
 0002:00000c0c       ??_C@_02FOEOMHFC@?$CL?$DN?$AA@ 000000018001ec0c     libvcruntime:undname.obj
 0002:00000c10       ??_C@_02FKMDLLOA@?9?$DN?$AA@ 000000018001ec10     libvcruntime:undname.obj
 0002:00000c14       ??_C@_02FJEHGPIO@?1?$DN?$AA@ 000000018001ec14     libvcruntime:undname.obj
 0002:00000c18       ??_C@_02FENAOKFI@?$CF?$DN?$AA@ 000000018001ec18     libvcruntime:undname.obj
 0002:00000c1c       ??_C@_03IKFCCPFF@?$DO?$DO?$DN?$AA@ 000000018001ec1c     libvcruntime:undname.obj
 0002:00000c20       ??_C@_03CDNPDDLA@?$DM?$DM?$DN?$AA@ 000000018001ec20     libvcruntime:undname.obj
 0002:00000c24       ??_C@_02FGJGFEAB@?$CG?$DN?$AA@ 000000018001ec24     libvcruntime:undname.obj
 0002:00000c28       ??_C@_02DHLNPPGH@?$HM?$DN?$AA@ 000000018001ec28     libvcruntime:undname.obj
 0002:00000c2c       ??_C@_02MHEGNOJ@?$FO?$DN?$AA@ 000000018001ec2c     libvcruntime:undname.obj
 0002:00000c30       ??_C@_09IFPLHPGF@?$GAvftable?8?$AA@ 000000018001ec30     libvcruntime:undname.obj
 0002:00000c40       ??_C@_09BLBHBJP@?$GAvbtable?8?$AA@ 000000018001ec40     libvcruntime:undname.obj
 0002:00000c50       ??_C@_07FEEIOKP@?$GAvcall?8?$AA@ 000000018001ec50     libvcruntime:undname.obj
 0002:00000c58       ??_C@_08LLFFHHDJ@?$GAtypeof?8?$AA@ 000000018001ec58     libvcruntime:undname.obj
 0002:00000c68       ??_C@_0BF@KDPPACIK@?$GAlocal?5static?5guard?8?$AA@ 000000018001ec68     libvcruntime:undname.obj
 0002:00000c80       ??_C@_08OBABFOLI@?$GAstring?8?$AA@ 000000018001ec80     libvcruntime:undname.obj
 0002:00000c90       ??_C@_0BD@JDLKDPAB@?$GAvbase?5destructor?8?$AA@ 000000018001ec90     libvcruntime:undname.obj
 0002:00000ca8       ??_C@_0BN@DEGPLNFK@?$GAvector?5deleting?5destructor?8?$AA@ 000000018001eca8     libvcruntime:undname.obj
 0002:00000cc8       ??_C@_0BO@OBMKPJIG@?$GAdefault?5constructor?5closure?8?$AA@ 000000018001ecc8     libvcruntime:undname.obj
 0002:00000ce8       ??_C@_0BN@IMDCHIKM@?$GAscalar?5deleting?5destructor?8?$AA@ 000000018001ece8     libvcruntime:undname.obj
 0002:00000d08       ??_C@_0BO@PFGOCPJJ@?$GAvector?5constructor?5iterator?8?$AA@ 000000018001ed08     libvcruntime:undname.obj
 0002:00000d28       ??_C@_0BN@LFPFMEDL@?$GAvector?5destructor?5iterator?8?$AA@ 000000018001ed28     libvcruntime:undname.obj
 0002:00000d48       ??_C@_0CE@IKBNEHA@?$GAvector?5vbase?5constructor?5iterat@ 000000018001ed48     libvcruntime:undname.obj
 0002:00000d70       ??_C@_0BL@NILFHHPC@?$GAvirtual?5displacement?5map?8?$AA@ 000000018001ed70     libvcruntime:undname.obj
 0002:00000d90       ??_C@_0CB@JONCMFFK@?$GAeh?5vector?5constructor?5iterator?8@ 000000018001ed90     libvcruntime:undname.obj
 0002:00000db8       ??_C@_0CA@GCEOPDGL@?$GAeh?5vector?5destructor?5iterator?8?$AA@ 000000018001edb8     libvcruntime:undname.obj
 0002:00000dd8       ??_C@_0CH@OOJPLCPH@?$GAeh?5vector?5vbase?5constructor?5ite@ 000000018001edd8     libvcruntime:undname.obj
 0002:00000e00       ??_C@_0BL@LLKPOHJI@?$GAcopy?5constructor?5closure?8?$AA@ 000000018001ee00     libvcruntime:undname.obj
 0002:00000e20       ??_C@_0BA@KBCDOMBN@?$GAudt?5returning?8?$AA@ 000000018001ee20     libvcruntime:undname.obj
 0002:00000e30       ??_C@_03KLGMFNMG@?$GAEH?$AA@ 000000018001ee30     libvcruntime:undname.obj
 0002:00000e34       ??_C@_05KHLCHHI@?$GARTTI?$AA@ 000000018001ee34     libvcruntime:undname.obj
 0002:00000e40       ??_C@_0BA@KKLDJDLB@?$GAlocal?5vftable?8?$AA@ 000000018001ee40     libvcruntime:undname.obj
 0002:00000e50       ??_C@_0CE@IIHCMGGL@?$GAlocal?5vftable?5constructor?5closu@ 000000018001ee50     libvcruntime:undname.obj
 0002:00000e74       ??_C@_06FHBGPFGH@?5new?$FL?$FN?$AA@ 000000018001ee74     libvcruntime:undname.obj
 0002:00000e80       ??_C@_09LBNFPBCA@?5delete?$FL?$FN?$AA@ 000000018001ee80     libvcruntime:undname.obj
 0002:00000e90       ??_C@_0P@HJKNJFNN@?$GAomni?5callsig?8?$AA@ 000000018001ee90     libvcruntime:undname.obj
 0002:00000ea0       ??_C@_0BL@CNOONJFP@?$GAplacement?5delete?5closure?8?$AA@ 000000018001eea0     libvcruntime:undname.obj
 0002:00000ec0       ??_C@_0BN@CKNJLHMB@?$GAplacement?5delete?$FL?$FN?5closure?8?$AA@ 000000018001eec0     libvcruntime:undname.obj
 0002:00000ee0       ??_C@_0CG@CFDHKGGD@?$GAmanaged?5vector?5constructor?5iter@ 000000018001eee0     libvcruntime:undname.obj
 0002:00000f08       ??_C@_0CF@IMGKMJNO@?$GAmanaged?5vector?5destructor?5itera@ 000000018001ef08     libvcruntime:undname.obj
 0002:00000f30       ??_C@_0CG@HLDDJMAG@?$GAeh?5vector?5copy?5constructor?5iter@ 000000018001ef30     libvcruntime:undname.obj
 0002:00000f58       ??_C@_0CM@FCBBDIGB@?$GAeh?5vector?5vbase?5copy?5constructo@ 000000018001ef58     libvcruntime:undname.obj
 0002:00000f88       ??_C@_0BL@CLIPGLGB@?$GAdynamic?5initializer?5for?5?8?$AA@ 000000018001ef88     libvcruntime:undname.obj
 0002:00000fa8       ??_C@_0CB@PDBIFEP@?$GAdynamic?5atexit?5destructor?5for?5?8@ 000000018001efa8     libvcruntime:undname.obj
 0002:00000fd0       ??_C@_0CD@CGAJBKEJ@?$GAvector?5copy?5constructor?5iterato@ 000000018001efd0     libvcruntime:undname.obj
 0002:00000ff8       ??_C@_0CJ@GJELGAMM@?$GAvector?5vbase?5copy?5constructor?5i@ 000000018001eff8     libvcruntime:undname.obj
 0002:00001028       ??_C@_0CL@FGIJHLCE@?$GAmanaged?5vector?5copy?5constructor@ 000000018001f028     libvcruntime:undname.obj
 0002:00001058       ??_C@_0BM@PMGGMLDN@?$GAlocal?5static?5thread?5guard?8?$AA@ 000000018001f058     libvcruntime:undname.obj
 0002:00001078       ??_C@_0N@BDNMDMOL@operator?5?$CC?$CC?5?$AA@ 000000018001f078     libvcruntime:undname.obj
 0002:00001088       ??_C@_0BC@DAFEJGAK@?5Type?5Descriptor?8?$AA@ 000000018001f088     libvcruntime:undname.obj
 0002:000010a0       ??_C@_0BM@LDKODKLH@?5Base?5Class?5Descriptor?5at?5?$CI?$AA@ 000000018001f0a0     libvcruntime:undname.obj
 0002:000010c0       ??_C@_0BD@LGICGFMM@?5Base?5Class?5Array?8?$AA@ 000000018001f0c0     libvcruntime:undname.obj
 0002:000010d8       ??_C@_0BN@MECKDCOJ@?5Class?5Hierarchy?5Descriptor?8?$AA@ 000000018001f0d8     libvcruntime:undname.obj
 0002:000010f8       ??_C@_0BK@CFCOFLF@?5Complete?5Object?5Locator?8?$AA@ 000000018001f0f8     libvcruntime:undname.obj
 0002:00001120       ??_C@_0EA@FCLIIPNN@Visual?5C?$CL?$CL?5CRT?3?5Not?5enough?5memor@ 000000018001f120     libucrt:strerror.obj
 0002:00001160       ??_C@_1EK@MBDPDCGA@?$AAM?$AAi?$AAc?$AAr?$AAo?$AAs?$AAo?$AAf?$AAt?$AA?5?$AAV?$AAi?$AAs?$AAu?$AAa?$AAl?$AA?5?$AAC?$AA?$CL?$AA?$CL?$AA?5?$AAR?$AAu?$AAn?$AAt?$AAi?$AAm?$AAe?$AA?5?$AAL?$AAi?$AAb@ 000000018001f160     libucrt:assert.obj
 0002:000011b0       ??_C@_1FE@LHBLIKM@?$AAA?$AAs?$AAs?$AAe?$AAr?$AAt?$AAi?$AAo?$AAn?$AA?5?$AAf?$AAa?$AAi?$AAl?$AAe?$AAd?$AA?3?$AA?5?$AA?$CF?$AAT?$AAs?$AA?0?$AA?5?$AAf?$AAi?$AAl?$AAe?$AA?5?$AA?$CF?$AAT?$AAs?$AA?0@ 000000018001f1b0     libucrt:assert.obj
 0002:00001208       ??_C@_1CE@OJBNHDMO@?$AAA?$AAs?$AAs?$AAe?$AAr?$AAt?$AAi?$AAo?$AAn?$AA?5?$AAf?$AAa?$AAi?$AAl?$AAe?$AAd?$AA?$CB?$AA?$AA@ 000000018001f208     libucrt:assert.obj
 0002:00001230       ??_C@_1BE@PHKBBGE@?$AAP?$AAr?$AAo?$AAg?$AAr?$AAa?$AAm?$AA?3?$AA?5?$AA?$AA@ 000000018001f230     libucrt:assert.obj
 0002:00001248       ??_C@_1O@HEMHKNDC@?$AAF?$AAi?$AAl?$AAe?$AA?3?$AA?5?$AA?$AA@ 000000018001f248     libucrt:assert.obj
 0002:00001258       ??_C@_1O@KCAFKHJE@?$AAL?$AAi?$AAn?$AAe?$AA?3?$AA?5?$AA?$AA@ 000000018001f258     libucrt:assert.obj
 0002:00001268       ??_C@_1BK@PEDCIPMA@?$AAE?$AAx?$AAp?$AAr?$AAe?$AAs?$AAs?$AAi?$AAo?$AAn?$AA?3?$AA?5?$AA?$AA@ 000000018001f268     libucrt:assert.obj
 0002:00001290       ??_C@_1OA@EGMLFBHJ@?$AAF?$AAo?$AAr?$AA?5?$AAi?$AAn?$AAf?$AAo?$AAr?$AAm?$AAa?$AAt?$AAi?$AAo?$AAn?$AA?5?$AAo?$AAn?$AA?5?$AAh?$AAo?$AAw?$AA?5?$AAy?$AAo?$AAu?$AAr?$AA?5?$AAp?$AAr?$AAo?$AAg@ 000000018001f290     libucrt:assert.obj
 0002:00001370       ??_C@_1HK@POCJMFGK@?$AA?$CI?$AAP?$AAr?$AAe?$AAs?$AAs?$AA?5?$AAR?$AAe?$AAt?$AAr?$AAy?$AA?5?$AAt?$AAo?$AA?5?$AAd?$AAe?$AAb?$AAu?$AAg?$AA?5?$AAt?$AAh?$AAe?$AA?5?$AAa?$AAp?$AAp?$AAl?$AAi?$AAc@ 000000018001f370     libucrt:assert.obj
 0002:000013f0       ??_C@_17LGKOMLJ@?$AA?4?$AA?4?$AA?4?$AA?$AA@ 000000018001f3f0     libucrt:assert.obj
 0002:000013f8       ??_C@_13LBAGMAIH@?$AA?6?$AA?$AA@ 000000018001f3f8     libucrt:assert.obj
 0002:000013fc       ??_C@_15IABLJNFO@?$AA?6?$AA?6?$AA?$AA@ 000000018001f3fc     libucrt:assert.obj
 0002:00001408       ??_C@_1CO@EAEJAADC@?$AA?$DM?$AAp?$AAr?$AAo?$AAg?$AAr?$AAa?$AAm?$AA?5?$AAn?$AAa?$AAm?$AAe?$AA?5?$AAu?$AAn?$AAk?$AAn?$AAo?$AAw?$AAn?$AA?$DO?$AA?$AA@ 000000018001f408     libucrt:assert.obj
 0002:000015b0       standard_lookup_table      000000018001f5b0     libucrt:output.obj
 0002:0000160c       ??_C@_06OJHGLDPL@?$CInull?$CJ?$AA@ 000000018001f60c     libucrt:output.obj
 0002:00001618       ??_C@_1O@CEDCILHN@?$AA?$CI?$AAn?$AAu?$AAl?$AAl?$AA?$CJ?$AA?$AA@ 000000018001f618     libucrt:output.obj
 0002:00001630       __acrt_exception_action_table 000000018001f630     libucrt:exception_filter.obj
 0002:000016f0       __acrt_signal_action_table_count 000000018001f6f0     libucrt:exception_filter.obj
 0002:000016f8       __acrt_signal_action_first_fpe_index 000000018001f6f8     libucrt:exception_filter.obj
 0002:00001700       __acrt_signal_action_fpe_count 000000018001f700     libucrt:exception_filter.obj
 0002:00001708       ??_C@_1BI@BGOHAHKC@?$AAm?$AAs?$AAc?$AAo?$AAr?$AAe?$AAe?$AA?4?$AAd?$AAl?$AAl?$AA?$AA@ 000000018001f708     libucrt:exit.obj
 0002:00001720       ??_C@_0P@MIGLKIOC@CorExitProcess?$AA@ 000000018001f720     libucrt:exit.obj
 0002:00001820       _sys_errlist               000000018001f820     libucrt:syserr.obj
 0002:00001980       ??_C@_08INEPGKHH@No?5error?$AA@ 000000018001f980     libucrt:syserr.obj
 0002:00001990       ??_C@_0BI@BJFCGOHL@Operation?5not?5permitted?$AA@ 000000018001f990     libucrt:syserr.obj
 0002:000019a8       ??_C@_0BK@FMDHKPNF@No?5such?5file?5or?5directory?$AA@ 000000018001f9a8     libucrt:syserr.obj
 0002:000019c8       ??_C@_0BA@FKIAIBGA@No?5such?5process?$AA@ 000000018001f9c8     libucrt:syserr.obj
 0002:000019d8       ??_C@_0BK@FJBOAFDK@Interrupted?5function?5call?$AA@ 000000018001f9d8     libucrt:syserr.obj
 0002:000019f8       ??_C@_0BD@KKNFOBBD@Input?1output?5error?$AA@ 000000018001f9f8     libucrt:syserr.obj
 0002:00001a10       ??_C@_0BK@DPKMCKJ@No?5such?5device?5or?5address?$AA@ 000000018001fa10     libucrt:syserr.obj
 0002:00001a30       ??_C@_0BC@MFFGCDFL@Arg?5list?5too?5long?$AA@ 000000018001fa30     libucrt:syserr.obj
 0002:00001a48       ??_C@_0BC@HKPNECK@Exec?5format?5error?$AA@ 000000018001fa48     libucrt:syserr.obj
 0002:00001a60       ??_C@_0BE@NFGDDCEF@Bad?5file?5descriptor?$AA@ 000000018001fa60     libucrt:syserr.obj
 0002:00001a78       ??_C@_0BD@LOHELEP@No?5child?5processes?$AA@ 000000018001fa78     libucrt:syserr.obj
 0002:00001a90       ??_C@_0CB@EPFKGNAK@Resource?5temporarily?5unavailable@ 000000018001fa90     libucrt:syserr.obj
 0002:00001ab8       ??_C@_0BB@IMDKMPFB@Not?5enough?5space?$AA@ 000000018001fab8     libucrt:syserr.obj
 0002:00001ad0       ??_C@_0BC@HFNFNKAI@Permission?5denied?$AA@ 000000018001fad0     libucrt:syserr.obj
 0002:00001ae8       ??_C@_0M@LOEHLCJD@Bad?5address?$AA@ 000000018001fae8     libucrt:syserr.obj
 0002:00001af8       ??_C@_0O@NIPGCINC@Unknown?5error?$AA@ 000000018001faf8     libucrt:syserr.obj
 0002:00001b08       ??_C@_0BA@BIBLIOEK@Resource?5device?$AA@ 000000018001fb08     libucrt:syserr.obj
 0002:00001b18       ??_C@_0M@NAAJNNGH@File?5exists?$AA@ 000000018001fb18     libucrt:syserr.obj
 0002:00001b28       ??_C@_0O@OAMDNOCP@Improper?5link?$AA@ 000000018001fb28     libucrt:syserr.obj
 0002:00001b38       ??_C@_0P@NLEIANHE@No?5such?5device?$AA@ 000000018001fb38     libucrt:syserr.obj
 0002:00001b48       ??_C@_0BA@CJBACOOL@Not?5a?5directory?$AA@ 000000018001fb48     libucrt:syserr.obj
 0002:00001b58       ??_C@_0P@NDHGCGKE@Is?5a?5directory?$AA@ 000000018001fb58     libucrt:syserr.obj
 0002:00001b68       ??_C@_0BB@HMGGCEBG@Invalid?5argument?$AA@ 000000018001fb68     libucrt:syserr.obj
 0002:00001b80       ??_C@_0BO@IIFBODJE@Too?5many?5open?5files?5in?5system?$AA@ 000000018001fb80     libucrt:syserr.obj
 0002:00001ba0       ??_C@_0BE@INBJMKGG@Too?5many?5open?5files?$AA@ 000000018001fba0     libucrt:syserr.obj
 0002:00001bb8       ??_C@_0CE@ONOKNLPF@Inappropriate?5I?1O?5control?5operat@ 000000018001fbb8     libucrt:syserr.obj
 0002:00001be0       ??_C@_0P@LFMMIPAE@File?5too?5large?$AA@ 000000018001fbe0     libucrt:syserr.obj
 0002:00001bf0       ??_C@_0BI@FEALHKLD@No?5space?5left?5on?5device?$AA@ 000000018001fbf0     libucrt:syserr.obj
 0002:00001c08       ??_C@_0N@FEHLOILP@Invalid?5seek?$AA@ 000000018001fc08     libucrt:syserr.obj
 0002:00001c18       ??_C@_0BG@DDBFNKBH@Read?9only?5file?5system?$AA@ 000000018001fc18     libucrt:syserr.obj
 0002:00001c30       ??_C@_0P@PKCJJLLM@Too?5many?5links?$AA@ 000000018001fc30     libucrt:syserr.obj
 0002:00001c40       ??_C@_0M@LHEPIIOM@Broken?5pipe?$AA@ 000000018001fc40     libucrt:syserr.obj
 0002:00001c50       ??_C@_0N@MMJPGLJK@Domain?5error?$AA@ 000000018001fc50     libucrt:syserr.obj
 0002:00001c60       ??_C@_0BB@FCBJFCAJ@Result?5too?5large?$AA@ 000000018001fc60     libucrt:syserr.obj
 0002:00001c78       ??_C@_0BK@JAEBMJJM@Resource?5deadlock?5avoided?$AA@ 000000018001fc78     libucrt:syserr.obj
 0002:00001c98       ??_C@_0BC@BEDIHIDK@Filename?5too?5long?$AA@ 000000018001fc98     libucrt:syserr.obj
 0002:00001cb0       ??_C@_0BD@CLHBCGPB@No?5locks?5available?$AA@ 000000018001fcb0     libucrt:syserr.obj
 0002:00001cc8       ??_C@_0BJ@IHEHINLI@Function?5not?5implemented?$AA@ 000000018001fcc8     libucrt:syserr.obj
 0002:00001ce8       ??_C@_0BE@ICMCHPHH@Directory?5not?5empty?$AA@ 000000018001fce8     libucrt:syserr.obj
 0002:00001d00       ??_C@_0BG@KLEAJEFJ@Illegal?5byte?5sequence?$AA@ 000000018001fd00     libucrt:syserr.obj
 0002:00001d18       _sys_nerr                  000000018001fd18     libucrt:syserr.obj
 0002:00001d20       __lc_time_c                000000018001fd20     libucrt:nlsdata.obj
 0002:00001fe0       ??_C@_03KOEHGMDN@Sun?$AA@  000000018001ffe0     libucrt:nlsdata.obj
 0002:00001fe4       ??_C@_03PDAGKDH@Mon?$AA@   000000018001ffe4     libucrt:nlsdata.obj
 0002:00001fe8       ??_C@_03NAGEINEP@Tue?$AA@  000000018001ffe8     libucrt:nlsdata.obj
 0002:00001fec       ??_C@_03MHOMLAJA@Wed?$AA@  000000018001ffec     libucrt:nlsdata.obj
 0002:00001ff0       ??_C@_03IOFIKPDN@Thu?$AA@  000000018001fff0     libucrt:nlsdata.obj
 0002:00001ff4       ??_C@_03IDIOELNC@Fri?$AA@  000000018001fff4     libucrt:nlsdata.obj
 0002:00001ff8       ??_C@_03FEFJNEK@Sat?$AA@   000000018001fff8     libucrt:nlsdata.obj
 0002:00001ffc       ??_C@_06OOPIFAJ@Sunday?$AA@ 000000018001fffc     libucrt:nlsdata.obj
 0002:00002004       ??_C@_06JLEDEDGH@Monday?$AA@ 0000000180020004     libucrt:nlsdata.obj
 0002:00002010       ??_C@_07BAAGCFCM@Tuesday?$AA@ 0000000180020010     libucrt:nlsdata.obj
 0002:00002018       ??_C@_09DLIGFAKA@Wednesday?$AA@ 0000000180020018     libucrt:nlsdata.obj
 0002:00002028       ??_C@_08HACCIKIA@Thursday?$AA@ 0000000180020028     libucrt:nlsdata.obj
 0002:00002034       ??_C@_06JECMNKMI@Friday?$AA@ 0000000180020034     libucrt:nlsdata.obj
 0002:00002040       ??_C@_08INBOOONO@Saturday?$AA@ 0000000180020040     libucrt:nlsdata.obj
 0002:0000204c       ??_C@_03JIHJHPIE@Jan?$AA@  000000018002004c     libucrt:nlsdata.obj
 0002:00002050       ??_C@_03HJBDCHOM@Feb?$AA@  0000000180020050     libucrt:nlsdata.obj
 0002:00002054       ??_C@_03ODNJBKGA@Mar?$AA@  0000000180020054     libucrt:nlsdata.obj
 0002:00002058       ??_C@_03LEOLGMJP@Apr?$AA@  0000000180020058     libucrt:nlsdata.obj
 0002:0000205c       ??_C@_03CNMDKL@May?$AA@    000000018002005c     libucrt:nlsdata.obj
 0002:00002060       ??_C@_03IDFGHECI@Jun?$AA@  0000000180020060     libucrt:nlsdata.obj
 0002:00002064       ??_C@_03LBGABGKK@Jul?$AA@  0000000180020064     libucrt:nlsdata.obj
 0002:00002068       ??_C@_03IFJFEIGA@Aug?$AA@  0000000180020068     libucrt:nlsdata.obj
 0002:0000206c       ??_C@_03GGCAPAJC@Sep?$AA@  000000018002006c     libucrt:nlsdata.obj
 0002:00002070       ??_C@_03BMAOKBAD@Oct?$AA@  0000000180020070     libucrt:nlsdata.obj
 0002:00002074       ??_C@_03JPJOFNIA@Nov?$AA@  0000000180020074     libucrt:nlsdata.obj
 0002:00002078       ??_C@_03MKABNOCG@Dec?$AA@  0000000180020078     libucrt:nlsdata.obj
 0002:00002080       ??_C@_07CGJPFGJA@January?$AA@ 0000000180020080     libucrt:nlsdata.obj
 0002:00002088       ??_C@_08GNJGEPFN@February?$AA@ 0000000180020088     libucrt:nlsdata.obj
 0002:00002094       ??_C@_05HPCKOFNC@March?$AA@ 0000000180020094     libucrt:nlsdata.obj
 0002:0000209c       ??_C@_05DMJDNLEJ@April?$AA@ 000000018002009c     libucrt:nlsdata.obj
 0002:000020a4       ??_C@_04CNLMGBGM@June?$AA@ 00000001800200a4     libucrt:nlsdata.obj
 0002:000020ac       ??_C@_04MIEPOIFP@July?$AA@ 00000001800200ac     libucrt:nlsdata.obj
 0002:000020b4       ??_C@_06LBBHFDDG@August?$AA@ 00000001800200b4     libucrt:nlsdata.obj
 0002:000020c0       ??_C@_09BHHEALKD@September?$AA@ 00000001800200c0     libucrt:nlsdata.obj
 0002:000020d0       ??_C@_07JJNFCEND@October?$AA@ 00000001800200d0     libucrt:nlsdata.obj
 0002:000020d8       ??_C@_08HCHEGEOA@November?$AA@ 00000001800200d8     libucrt:nlsdata.obj
 0002:000020e8       ??_C@_08EDHMEBNP@December?$AA@ 00000001800200e8     libucrt:nlsdata.obj
 0002:000020f4       ??_C@_02DEDBPAFC@AM?$AA@   00000001800200f4     libucrt:nlsdata.obj
 0002:000020f8       ??_C@_02CJNFDJBF@PM?$AA@   00000001800200f8     libucrt:nlsdata.obj
 0002:00002100       ??_C@_08BPBNCDIB@MM?1dd?1yy?$AA@ 0000000180020100     libucrt:nlsdata.obj
 0002:00002110       ??_C@_0BE@CKGJFCPC@dddd?0?5MMMM?5dd?0?5yyyy?$AA@ 0000000180020110     libucrt:nlsdata.obj
 0002:00002128       ??_C@_08JCCMCCIL@HH?3mm?3ss?$AA@ 0000000180020128     libucrt:nlsdata.obj
 0002:00002138       ??_C@_17MBGCMIPB@?$AAS?$AAu?$AAn?$AA?$AA@ 0000000180020138     libucrt:nlsdata.obj
 0002:00002140       ??_C@_17KBOMKBF@?$AAM?$AAo?$AAn?$AA?$AA@ 0000000180020140     libucrt:nlsdata.obj
 0002:00002148       ??_C@_17BMKGEGOJ@?$AAT?$AAu?$AAe?$AA?$AA@ 0000000180020148     libucrt:nlsdata.obj
 0002:00002150       ??_C@_17CJEDCEPE@?$AAW?$AAe?$AAd?$AA?$AA@ 0000000180020150     libucrt:nlsdata.obj
 0002:00002158       ??_C@_17PDPHAADD@?$AAT?$AAh?$AAu?$AA?$AA@ 0000000180020158     libucrt:nlsdata.obj
 0002:00002160       ??_C@_17HFOLPPLP@?$AAF?$AAr?$AAi?$AA?$AA@ 0000000180020160     libucrt:nlsdata.obj
 0002:00002168       ??_C@_17GGIBDPIH@?$AAS?$AAa?$AAt?$AA?$AA@ 0000000180020168     libucrt:nlsdata.obj
 0002:00002170       ??_C@_1O@IHNHDHPB@?$AAS?$AAu?$AAn?$AAd?$AAa?$AAy?$AA?$AA@ 0000000180020170     libucrt:nlsdata.obj
 0002:00002180       ??_C@_1O@MMNBFLIA@?$AAM?$AAo?$AAn?$AAd?$AAa?$AAy?$AA?$AA@ 0000000180020180     libucrt:nlsdata.obj
 0002:00002190       ??_C@_1BA@ENFBFFEK@?$AAT?$AAu?$AAe?$AAs?$AAd?$AAa?$AAy?$AA?$AA@ 0000000180020190     libucrt:nlsdata.obj
 0002:000021a0       ??_C@_1BE@EBOGMDOH@?$AAW?$AAe?$AAd?$AAn?$AAe?$AAs?$AAd?$AAa?$AAy?$AA?$AA@ 00000001800201a0     libucrt:nlsdata.obj
 0002:000021b8       ??_C@_1BC@HHMNLIHE@?$AAT?$AAh?$AAu?$AAr?$AAs?$AAd?$AAa?$AAy?$AA?$AA@ 00000001800201b8     libucrt:nlsdata.obj
 0002:000021d0       ??_C@_1O@PDICJHAG@?$AAF?$AAr?$AAi?$AAd?$AAa?$AAy?$AA?$AA@ 00000001800201d0     libucrt:nlsdata.obj
 0002:000021e0       ??_C@_1BC@ENMNNPAJ@?$AAS?$AAa?$AAt?$AAu?$AAr?$AAd?$AAa?$AAy?$AA?$AA@ 00000001800201e0     libucrt:nlsdata.obj
 0002:000021f8       ??_C@_17DKNBKCHM@?$AAJ?$AAa?$AAn?$AA?$AA@ 00000001800201f8     libucrt:nlsdata.obj
 0002:00002200       ??_C@_17LMDJEKJN@?$AAF?$AAe?$AAb?$AA?$AA@ 0000000180020200     libucrt:nlsdata.obj
 0002:00002208       ??_C@_17CKNLEDEC@?$AAM?$AAa?$AAr?$AA?$AA@ 0000000180020208     libucrt:nlsdata.obj
 0002:00002210       ??_C@_17LFPOIHDD@?$AAA?$AAp?$AAr?$AA?$AA@ 0000000180020210     libucrt:nlsdata.obj
 0002:00002218       ??_C@_17PNNKMEED@?$AAM?$AAa?$AAy?$AA?$AA@ 0000000180020218     libucrt:nlsdata.obj
 0002:00002220       ??_C@_17KCJGOCPB@?$AAJ?$AAu?$AAn?$AA?$AA@ 0000000180020220     libucrt:nlsdata.obj
 0002:00002228       ??_C@_17IJPCKHK@?$AAJ?$AAu?$AAl?$AA?$AA@ 0000000180020228     libucrt:nlsdata.obj
 0002:00002230       ??_C@_17ICPELBCN@?$AAA?$AAu?$AAg?$AA?$AA@ 0000000180020230     libucrt:nlsdata.obj
 0002:00002238       ??_C@_17HCHCOKMG@?$AAS?$AAe?$AAp?$AA?$AA@ 0000000180020238     libucrt:nlsdata.obj
 0002:00002240       ??_C@_17FNLKOI@?$AAO?$AAc?$AAt?$AA?$AA@ 0000000180020240     libucrt:nlsdata.obj
 0002:00002248       ??_C@_17BBDMLCIG@?$AAN?$AAo?$AAv?$AA?$AA@ 0000000180020248     libucrt:nlsdata.obj
 0002:00002250       ??_C@_17EGKACKIF@?$AAD?$AAe?$AAc?$AA?$AA@ 0000000180020250     libucrt:nlsdata.obj
 0002:00002258       ??_C@_1BA@EFMEIEBA@?$AAJ?$AAa?$AAn?$AAu?$AAa?$AAr?$AAy?$AA?$AA@ 0000000180020258     libucrt:nlsdata.obj
 0002:00002268       ??_C@_1BC@JGDDFFAM@?$AAF?$AAe?$AAb?$AAr?$AAu?$AAa?$AAr?$AAy?$AA?$AA@ 0000000180020268     libucrt:nlsdata.obj
 0002:00002280       ??_C@_1M@IKEENEDF@?$AAM?$AAa?$AAr?$AAc?$AAh?$AA?$AA@ 0000000180020280     libucrt:nlsdata.obj
 0002:00002290       ??_C@_1M@GJNLMHFD@?$AAA?$AAp?$AAr?$AAi?$AAl?$AA?$AA@ 0000000180020290     libucrt:nlsdata.obj
 0002:000022a0       ??_C@_19EPFLPGAP@?$AAJ?$AAu?$AAn?$AAe?$AA?$AA@ 00000001800202a0     libucrt:nlsdata.obj
 0002:000022b0       ??_C@_19BIFMLPCD@?$AAJ?$AAu?$AAl?$AAy?$AA?$AA@ 00000001800202b0     libucrt:nlsdata.obj
 0002:000022c0       ??_C@_1O@PAHLKOAC@?$AAA?$AAu?$AAg?$AAu?$AAs?$AAt?$AA?$AA@ 00000001800202c0     libucrt:nlsdata.obj
 0002:000022d0       ??_C@_1BE@DKAAMBJL@?$AAS?$AAe?$AAp?$AAt?$AAe?$AAm?$AAb?$AAe?$AAr?$AA?$AA@ 00000001800202d0     libucrt:nlsdata.obj
 0002:000022e8       ??_C@_1BA@EPANDLNG@?$AAO?$AAc?$AAt?$AAo?$AAb?$AAe?$AAr?$AA?$AA@ 00000001800202e8     libucrt:nlsdata.obj
 0002:000022f8       ??_C@_1BC@BGLIFPF@?$AAN?$AAo?$AAv?$AAe?$AAm?$AAb?$AAe?$AAr?$AA?$AA@ 00000001800202f8     libucrt:nlsdata.obj
 0002:00002310       ??_C@_1BC@FEMKIFH@?$AAD?$AAe?$AAc?$AAe?$AAm?$AAb?$AAe?$AAr?$AA?$AA@ 0000000180020310     libucrt:nlsdata.obj
 0002:00002324       ??_C@_15ODEHAHHF@?$AAA?$AAM?$AA?$AA@ 0000000180020324     libucrt:nlsdata.obj
 0002:0000232c       ??_C@_15CLMNNGEL@?$AAP?$AAM?$AA?$AA@ 000000018002032c     libucrt:nlsdata.obj
 0002:00002338       ??_C@_1BC@IEBCMHCM@?$AAM?$AAM?$AA?1?$AAd?$AAd?$AA?1?$AAy?$AAy?$AA?$AA@ 0000000180020338     libucrt:nlsdata.obj
 0002:00002350       ??_C@_1CI@KNAKOEBC@?$AAd?$AAd?$AAd?$AAd?$AA?0?$AA?5?$AAM?$AAM?$AAM?$AAM?$AA?5?$AAd?$AAd?$AA?0?$AA?5?$AAy?$AAy?$AAy?$AAy?$AA?$AA@ 0000000180020350     libucrt:nlsdata.obj
 0002:00002378       ??_C@_1BC@GDGBMEMK@?$AAH?$AAH?$AA?3?$AAm?$AAm?$AA?3?$AAs?$AAs?$AA?$AA@ 0000000180020378     libucrt:nlsdata.obj
 0002:00002390       ??_C@_1M@BMHNFIME@?$AAe?$AAn?$AA?9?$AAU?$AAS?$AA?$AA@ 0000000180020390     libucrt:nlsdata.obj
 0002:00002440       ??_C@_1EG@CNNIPFIM@?$AAa?$AAp?$AAi?$AA?9?$AAm?$AAs?$AA?9?$AAw?$AAi?$AAn?$AA?9?$AAa?$AAp?$AAp?$AAm?$AAo?$AAd?$AAe?$AAl?$AA?9?$AAr?$AAu?$AAn?$AAt?$AAi?$AAm?$AAe?$AA?9?$AAl?$AA1?$AA?9?$AA1@ 0000000180020440     libucrt:winapi_thunks.obj
 0002:00002490       ??_C@_1EA@JGEFHKEI@?$AAa?$AAp?$AAi?$AA?9?$AAm?$AAs?$AA?9?$AAw?$AAi?$AAn?$AA?9?$AAc?$AAo?$AAr?$AAe?$AA?9?$AAd?$AAa?$AAt?$AAe?$AAt?$AAi?$AAm?$AAe?$AA?9?$AAl?$AA1?$AA?9?$AA1?$AA?9?$AA1?$AA?$AA@ 0000000180020490     libucrt:winapi_thunks.obj
 0002:000024d0       ??_C@_1DI@GCIAAENM@?$AAa?$AAp?$AAi?$AA?9?$AAm?$AAs?$AA?9?$AAw?$AAi?$AAn?$AA?9?$AAc?$AAo?$AAr?$AAe?$AA?9?$AAf?$AAi?$AAl?$AAe?$AA?9?$AAl?$AA2?$AA?9?$AA1?$AA?9?$AA1?$AA?$AA@ 00000001800204d0     libucrt:winapi_thunks.obj
 0002:00002510       ??_C@_1EI@MPIAOHOC@?$AAa?$AAp?$AAi?$AA?9?$AAm?$AAs?$AA?9?$AAw?$AAi?$AAn?$AA?9?$AAc?$AAo?$AAr?$AAe?$AA?9?$AAl?$AAo?$AAc?$AAa?$AAl?$AAi?$AAz?$AAa?$AAt?$AAi?$AAo?$AAn?$AA?9?$AAl?$AA1?$AA?9@ 0000000180020510     libucrt:winapi_thunks.obj
 0002:00002560       ??_C@_1FK@FPHCKFIE@?$AAa?$AAp?$AAi?$AA?9?$AAm?$AAs?$AA?9?$AAw?$AAi?$AAn?$AA?9?$AAc?$AAo?$AAr?$AAe?$AA?9?$AAl?$AAo?$AAc?$AAa?$AAl?$AAi?$AAz?$AAa?$AAt?$AAi?$AAo?$AAn?$AA?9?$AAo?$AAb?$AAs@ 0000000180020560     libucrt:winapi_thunks.obj
 0002:000025c0       ??_C@_1EM@DILCGIIO@?$AAa?$AAp?$AAi?$AA?9?$AAm?$AAs?$AA?9?$AAw?$AAi?$AAn?$AA?9?$AAc?$AAo?$AAr?$AAe?$AA?9?$AAp?$AAr?$AAo?$AAc?$AAe?$AAs?$AAs?$AAt?$AAh?$AAr?$AAe?$AAa?$AAd?$AAs?$AA?9?$AAl@ 00000001800205c0     libucrt:winapi_thunks.obj
 0002:00002610       ??_C@_1DM@LNCGDDPN@?$AAa?$AAp?$AAi?$AA?9?$AAm?$AAs?$AA?9?$AAw?$AAi?$AAn?$AA?9?$AAc?$AAo?$AAr?$AAe?$AA?9?$AAs?$AAt?$AAr?$AAi?$AAn?$AAg?$AA?9?$AAl?$AA1?$AA?9?$AA1?$AA?9?$AA0?$AA?$AA@ 0000000180020610     libucrt:winapi_thunks.obj
 0002:00002650       ??_C@_1DO@FPAPJEMD@?$AAa?$AAp?$AAi?$AA?9?$AAm?$AAs?$AA?9?$AAw?$AAi?$AAn?$AA?9?$AAc?$AAo?$AAr?$AAe?$AA?9?$AAs?$AAy?$AAs?$AAi?$AAn?$AAf?$AAo?$AA?9?$AAl?$AA1?$AA?9?$AA2?$AA?9?$AA1?$AA?$AA@ 0000000180020650     libucrt:winapi_thunks.obj
 0002:00002690       ??_C@_1DK@NDHNAHIO@?$AAa?$AAp?$AAi?$AA?9?$AAm?$AAs?$AA?9?$AAw?$AAi?$AAn?$AA?9?$AAc?$AAo?$AAr?$AAe?$AA?9?$AAw?$AAi?$AAn?$AAr?$AAt?$AA?9?$AAl?$AA1?$AA?9?$AA1?$AA?9?$AA0?$AA?$AA@ 0000000180020690     libucrt:winapi_thunks.obj
 0002:000026d0       ??_C@_1DM@KGHDGBCM@?$AAa?$AAp?$AAi?$AA?9?$AAm?$AAs?$AA?9?$AAw?$AAi?$AAn?$AA?9?$AAc?$AAo?$AAr?$AAe?$AA?9?$AAx?$AAs?$AAt?$AAa?$AAt?$AAe?$AA?9?$AAl?$AA2?$AA?9?$AA1?$AA?9?$AA0?$AA?$AA@ 00000001800206d0     libucrt:winapi_thunks.obj
 0002:00002710       ??_C@_1EO@IJIOEFOH@?$AAa?$AAp?$AAi?$AA?9?$AAm?$AAs?$AA?9?$AAw?$AAi?$AAn?$AA?9?$AAr?$AAt?$AAc?$AAo?$AAr?$AAe?$AA?9?$AAn?$AAt?$AAu?$AAs?$AAe?$AAr?$AA?9?$AAw?$AAi?$AAn?$AAd?$AAo?$AAw?$AA?9@ 0000000180020710     libucrt:winapi_thunks.obj
 0002:00002760       ??_C@_1FG@HHGEKANL@?$AAa?$AAp?$AAi?$AA?9?$AAm?$AAs?$AA?9?$AAw?$AAi?$AAn?$AA?9?$AAs?$AAe?$AAc?$AAu?$AAr?$AAi?$AAt?$AAy?$AA?9?$AAs?$AAy?$AAs?$AAt?$AAe?$AAm?$AAf?$AAu?$AAn?$AAc?$AAt?$AAi@ 0000000180020760     libucrt:winapi_thunks.obj
 0002:000027c0       ??_C@_1FG@NCKKOLKO@?$AAe?$AAx?$AAt?$AA?9?$AAm?$AAs?$AA?9?$AAw?$AAi?$AAn?$AA?9?$AAk?$AAe?$AAr?$AAn?$AAe?$AAl?$AA3?$AA2?$AA?9?$AAp?$AAa?$AAc?$AAk?$AAa?$AAg?$AAe?$AA?9?$AAc?$AAu?$AAr?$AAr@ 00000001800207c0     libucrt:winapi_thunks.obj
 0002:00002820       ??_C@_1EG@DBIOJECG@?$AAe?$AAx?$AAt?$AA?9?$AAm?$AAs?$AA?9?$AAw?$AAi?$AAn?$AA?9?$AAn?$AAt?$AAu?$AAs?$AAe?$AAr?$AA?9?$AAd?$AAi?$AAa?$AAl?$AAo?$AAg?$AAb?$AAo?$AAx?$AA?9?$AAl?$AA1?$AA?9?$AA1@ 0000000180020820     libucrt:winapi_thunks.obj
 0002:00002870       ??_C@_1EO@FIHMJCLF@?$AAe?$AAx?$AAt?$AA?9?$AAm?$AAs?$AA?9?$AAw?$AAi?$AAn?$AA?9?$AAn?$AAt?$AAu?$AAs?$AAe?$AAr?$AA?9?$AAw?$AAi?$AAn?$AAd?$AAo?$AAw?$AAs?$AAt?$AAa?$AAt?$AAi?$AAo?$AAn?$AA?9@ 0000000180020870     libucrt:winapi_thunks.obj
 0002:000028c0       ??_C@_1O@BCCLBEOE@?$AAu?$AAs?$AAe?$AAr?$AA3?$AA2?$AA?$AA@ 00000001800208c0     libucrt:winapi_thunks.obj
 0002:000028f8       ??_C@_0BA@HNOPNCHB@GetActiveWindow?$AA@ 00000001800208f8     libucrt:winapi_thunks.obj
 0002:00002910       ??_C@_0BE@JOGNEJCI@GetCurrentPackageId?$AA@ 0000000180020910     libucrt:winapi_thunks.obj
 0002:00002930       ??_C@_0BD@HHGDFDBJ@GetLastActivePopup?$AA@ 0000000180020930     libucrt:winapi_thunks.obj
 0002:00002950       ??_C@_0BI@DFKBFLJE@GetProcessWindowStation?$AA@ 0000000180020950     libucrt:winapi_thunks.obj
 0002:00002970       ??_C@_0BK@DEKFELLI@GetUserObjectInformationW?$AA@ 0000000180020970     libucrt:winapi_thunks.obj
 0002:000029a0       ??_C@_0O@KKBNKAPF@LCMapStringEx?$AA@ 00000001800209a0     libucrt:winapi_thunks.obj
 0002:000029b8       ??_C@_0BB@HBDEELFH@LocaleNameToLCID?$AA@ 00000001800209b8     libucrt:winapi_thunks.obj
 0002:000029d8       ??_C@_0M@CHKKJDAI@MessageBoxA?$AA@ 00000001800209d8     libucrt:winapi_thunks.obj
 0002:000029f0       ??_C@_0M@DLDCCGNP@MessageBoxW?$AA@ 00000001800209f0     libucrt:winapi_thunks.obj
 0002:000029fc       ??_C@_03OEIAHPBN@INF?$AA@  00000001800209fc     libucrt:cvt.obj
 0002:00002a00       ??_C@_03OJHLLCGB@inf?$AA@  0000000180020a00     libucrt:cvt.obj
 0002:00002a04       ??_C@_03LKNCIKJB@NAN?$AA@  0000000180020a04     libucrt:cvt.obj
 0002:00002a08       ??_C@_03LHCJEHON@nan?$AA@  0000000180020a08     libucrt:cvt.obj
 0002:00002a10       ??_C@_09OFJJIMPC@NAN?$CISNAN?$CJ?$AA@ 0000000180020a10     libucrt:cvt.obj
 0002:00002a20       ??_C@_09IPFBKMDL@nan?$CIsnan?$CJ?$AA@ 0000000180020a20     libucrt:cvt.obj
 0002:00002a30       ??_C@_08IKHNHAJ@NAN?$CIIND?$CJ?$AA@ 0000000180020a30     libucrt:cvt.obj
 0002:00002a40       ??_C@_08OFCDMILK@nan?$CIind?$CJ?$AA@ 0000000180020a40     libucrt:cvt.obj
 0002:00002a4c       ??_C@_05KLBDPFGC@e?$CL000?$AA@ 0000000180020a4c     libucrt:cvt.obj
 0002:00002a78       ??_C@_1M@HPNHIDJI@?$AAj?$AAa?$AA?9?$AAJ?$AAP?$AA?$AA@ 0000000180020a78     libucrt:mbctype.obj
 0002:00002a88       ??_C@_1M@BIBDDEMK@?$AAz?$AAh?$AA?9?$AAC?$AAN?$AA?$AA@ 0000000180020a88     libucrt:mbctype.obj
 0002:00002a98       ??_C@_1M@JLOOOEGK@?$AAk?$AAo?$AA?9?$AAK?$AAR?$AA?$AA@ 0000000180020a98     libucrt:mbctype.obj
 0002:00002aa8       ??_C@_1M@CLNBBOPM@?$AAz?$AAh?$AA?9?$AAT?$AAW?$AA?$AA@ 0000000180020aa8     libucrt:mbctype.obj
 0002:00002ac0       __newctype                 0000000180020ac0     libucrt:ctype.obj
 0002:00002dc0       __newclmap                 0000000180020dc0     libucrt:ctype.obj
 0002:00002f40       __newcumap                 0000000180020f40     libucrt:ctype.obj
 0002:000030c0       _wctype                    00000001800210c0     libucrt:ctype.obj
 0002:000032c4       ??_C@_15PJPFLCCM@?$AAu?$AAk?$AA?$AA@ 00000001800212c4     libucrt:get_qualified_locale.obj
 0002:00004110       ??_C@_15EMKDOKLE@?$AAa?$AAr?$AA?$AA@ 0000000180022110     libucrt:lcidtoname_downlevel.obj
 0002:00004118       ??_C@_15KNPADPLH@?$AAb?$AAg?$AA?$AA@ 0000000180022118     libucrt:lcidtoname_downlevel.obj
 0002:00004120       ??_C@_15EDMHLDMO@?$AAc?$AAa?$AA?$AA@ 0000000180022120     libucrt:lcidtoname_downlevel.obj
 0002:00004128       ??_C@_1O@BPEAJADD@?$AAz?$AAh?$AA?9?$AAC?$AAH?$AAS?$AA?$AA@ 0000000180022128     libucrt:lcidtoname_downlevel.obj
 0002:00004138       ??_C@_15LJNHCMNK@?$AAc?$AAs?$AA?$AA@ 0000000180022138     libucrt:lcidtoname_downlevel.obj
 0002:00004140       ??_C@_15FOMCIDHG@?$AAd?$AAa?$AA?$AA@ 0000000180022140     libucrt:lcidtoname_downlevel.obj
 0002:00004148       ??_C@_15NBKABECB@?$AAd?$AAe?$AA?$AA@ 0000000180022148     libucrt:lcidtoname_downlevel.obj
 0002:00004150       ??_C@_15GHPEIIAO@?$AAe?$AAl?$AA?$AA@ 0000000180022150     libucrt:lcidtoname_downlevel.obj
 0002:00004158       ??_C@_15MNPNEAIF@?$AAe?$AAn?$AA?$AA@ 0000000180022158     libucrt:lcidtoname_downlevel.obj
 0002:00004160       ??_C@_15GPIOMPMH@?$AAe?$AAs?$AA?$AA@ 0000000180022160     libucrt:lcidtoname_downlevel.obj
 0002:00004168       ??_C@_15NGLOAKJC@?$AAf?$AAi?$AA?$AA@ 0000000180022168     libucrt:lcidtoname_downlevel.obj
 0002:00004170       ??_C@_15FBKGNKAM@?$AAf?$AAr?$AA?$AA@ 0000000180022170     libucrt:lcidtoname_downlevel.obj
 0002:00004178       ??_C@_15KGGCNEFK@?$AAh?$AAe?$AA?$AA@ 0000000180022178     libucrt:lcidtoname_downlevel.obj
 0002:00004180       ??_C@_15PGHLIDMF@?$AAh?$AAu?$AA?$AA@ 0000000180022180     libucrt:lcidtoname_downlevel.obj
 0002:00004188       ??_C@_15BIEMAPLM@?$AAi?$AAs?$AA?$AA@ 0000000180022188     libucrt:lcidtoname_downlevel.obj
 0002:00004190       ??_C@_15IFJLDHAF@?$AAi?$AAt?$AA?$AA@ 0000000180022190     libucrt:lcidtoname_downlevel.obj
 0002:00004198       ??_C@_15GEMIOCAG@?$AAj?$AAa?$AA?$AA@ 0000000180022198     libucrt:lcidtoname_downlevel.obj
 0002:000041a0       ??_C@_15EPELEGJA@?$AAk?$AAo?$AA?$AA@ 00000001800221a0     libucrt:lcidtoname_downlevel.obj
 0002:000041a8       ??_C@_15NDDHIMN@?$AAn?$AAl?$AA?$AA@ 00000001800221a8     libucrt:lcidtoname_downlevel.obj
 0002:000041b0       ??_C@_15BPIGNHCD@?$AAn?$AAo?$AA?$AA@ 00000001800221b0     libucrt:lcidtoname_downlevel.obj
 0002:000041b8       ??_C@_15DEOPBLCG@?$AAp?$AAl?$AA?$AA@ 00000001800221b8     libucrt:lcidtoname_downlevel.obj
 0002:000041c0       ??_C@_15KBECGEFG@?$AAp?$AAt?$AA?$AA@ 00000001800221c0     libucrt:lcidtoname_downlevel.obj
 0002:000041c8       ??_C@_15GLJCBFMD@?$AAr?$AAo?$AA?$AA@ 00000001800221c8     libucrt:lcidtoname_downlevel.obj
 0002:000041d0       ??_C@_15FEDGKCDI@?$AAr?$AAu?$AA?$AA@ 00000001800221d0     libucrt:lcidtoname_downlevel.obj
 0002:000041d8       ??_C@_15GLKMLLHM@?$AAh?$AAr?$AA?$AA@ 00000001800221d8     libucrt:lcidtoname_downlevel.obj
 0002:000041e0       ??_C@_15CPKMFBDB@?$AAs?$AAk?$AA?$AA@ 00000001800221e0     libucrt:lcidtoname_downlevel.obj
 0002:000041e8       ??_C@_15BAAIOGMK@?$AAs?$AAq?$AA?$AA@ 00000001800221e8     libucrt:lcidtoname_downlevel.obj
 0002:000041f0       ??_C@_15INNPNOHD@?$AAs?$AAv?$AA?$AA@ 00000001800221f0     libucrt:lcidtoname_downlevel.obj
 0002:000041f8       ??_C@_15CABMMOGH@?$AAt?$AAh?$AA?$AA@ 00000001800221f8     libucrt:lcidtoname_downlevel.obj
 0002:00004200       ??_C@_15BPLIHJJM@?$AAt?$AAr?$AA?$AA@ 0000000180022200     libucrt:lcidtoname_downlevel.obj
 0002:00004208       ??_C@_15NEOEKKDJ@?$AAu?$AAr?$AA?$AA@ 0000000180022208     libucrt:lcidtoname_downlevel.obj
 0002:00004210       ??_C@_15NFICGAJK@?$AAi?$AAd?$AA?$AA@ 0000000180022210     libucrt:lcidtoname_downlevel.obj
 0002:00004218       ??_C@_15HPJPHDM@?$AAb?$AAe?$AA?$AA@ 0000000180022218     libucrt:lcidtoname_downlevel.obj
 0002:00004220       ??_C@_15LCHLGJII@?$AAs?$AAl?$AA?$AA@ 0000000180022220     libucrt:lcidtoname_downlevel.obj
 0002:00004228       ??_C@_15PCFJPHHO@?$AAe?$AAt?$AA?$AA@ 0000000180022228     libucrt:lcidtoname_downlevel.obj
 0002:00004230       ??_C@_15HPFPGODN@?$AAl?$AAv?$AA?$AA@ 0000000180022230     libucrt:lcidtoname_downlevel.obj
 0002:00004238       ??_C@_15NFFGKGLG@?$AAl?$AAt?$AA?$AA@ 0000000180022238     libucrt:lcidtoname_downlevel.obj
 0002:00004240       ??_C@_15BDAKCCHN@?$AAf?$AAa?$AA?$AA@ 0000000180022240     libucrt:lcidtoname_downlevel.obj
 0002:00004248       ??_C@_15NFGIAIAJ@?$AAv?$AAi?$AA?$AA@ 0000000180022248     libucrt:lcidtoname_downlevel.obj
 0002:00004250       ??_C@_15LMKNDMHN@?$AAh?$AAy?$AA?$AA@ 0000000180022250     libucrt:lcidtoname_downlevel.obj
 0002:00004258       ??_C@_15IJBHMCFL@?$AAa?$AAz?$AA?$AA@ 0000000180022258     libucrt:lcidtoname_downlevel.obj
 0002:00004260       ??_C@_15EKOFJABL@?$AAe?$AAu?$AA?$AA@ 0000000180022260     libucrt:lcidtoname_downlevel.obj
 0002:00004268       ??_C@_15BGHADCNK@?$AAm?$AAk?$AA?$AA@ 0000000180022268     libucrt:lcidtoname_downlevel.obj
 0002:00004270       ??_C@_15JDNICKHM@?$AAa?$AAf?$AA?$AA@ 0000000180022270     libucrt:lcidtoname_downlevel.obj
 0002:00004278       ??_C@_15KPJEDBKD@?$AAk?$AAa?$AA?$AA@ 0000000180022278     libucrt:lcidtoname_downlevel.obj
 0002:00004280       ??_C@_15PDNFFFEO@?$AAf?$AAo?$AA?$AA@ 0000000180022280     libucrt:lcidtoname_downlevel.obj
 0002:00004288       ??_C@_15OMLEGLOC@?$AAh?$AAi?$AA?$AA@ 0000000180022288     libucrt:lcidtoname_downlevel.obj
 0002:00004290       ??_C@_15IDNNENKK@?$AAm?$AAs?$AA?$AA@ 0000000180022290     libucrt:lcidtoname_downlevel.obj
 0002:00004298       ??_C@_15MACJNBMH@?$AAk?$AAk?$AA?$AA@ 0000000180022298     libucrt:lcidtoname_downlevel.obj
 0002:000042a0       ??_C@_15DKDJEOND@?$AAk?$AAy?$AA?$AA@ 00000001800222a0     libucrt:lcidtoname_downlevel.obj
 0002:000042a8       ??_C@_15DFGDLJBG@?$AAs?$AAw?$AA?$AA@ 00000001800222a8     libucrt:lcidtoname_downlevel.obj
 0002:000042b0       ??_C@_15BBFAICNG@?$AAu?$AAz?$AA?$AA@ 00000001800222b0     libucrt:lcidtoname_downlevel.obj
 0002:000042b8       ??_C@_15DKNDCGEA@?$AAt?$AAt?$AA?$AA@ 00000001800222b8     libucrt:lcidtoname_downlevel.obj
 0002:000042c0       ??_C@_15MGIFMDPL@?$AAp?$AAa?$AA?$AA@ 00000001800222c0     libucrt:lcidtoname_downlevel.obj
 0002:000042c8       ??_C@_15HCNDBBA@?$AAg?$AAu?$AA?$AA@ 00000001800222c8     libucrt:lcidtoname_downlevel.obj
 0002:000042d0       ??_C@_15FNBEIBON@?$AAt?$AAa?$AA?$AA@ 00000001800222d0     libucrt:lcidtoname_downlevel.obj
 0002:000042d8       ??_C@_15NCHGBGLK@?$AAt?$AAe?$AA?$AA@ 00000001800222d8     libucrt:lcidtoname_downlevel.obj
 0002:000042e0       ??_C@_15PHPHCBPF@?$AAk?$AAn?$AA?$AA@ 00000001800222e0     libucrt:lcidtoname_downlevel.obj
 0002:000042e8       ??_C@_15DLGBCKMP@?$AAm?$AAr?$AA?$AA@ 00000001800222e8     libucrt:lcidtoname_downlevel.obj
 0002:000042f0       ??_C@_15EABBLBFF@?$AAs?$AAa?$AA?$AA@ 00000001800222f0     libucrt:lcidtoname_downlevel.obj
 0002:000042f8       ??_C@_15CBKOMCOI@?$AAm?$AAn?$AA?$AA@ 00000001800222f8     libucrt:lcidtoname_downlevel.obj
 0002:00004300       ??_C@_15CKDMCJAF@?$AAg?$AAl?$AA?$AA@ 0000000180022300     libucrt:lcidtoname_downlevel.obj
 0002:00004308       ??_C@_17CNJFBPG@?$AAk?$AAo?$AAk?$AA?$AA@ 0000000180022308     libucrt:lcidtoname_downlevel.obj
 0002:00004310       ??_C@_17FFBJICPL@?$AAs?$AAy?$AAr?$AA?$AA@ 0000000180022310     libucrt:lcidtoname_downlevel.obj
 0002:00004318       ??_C@_17KPNDCPAF@?$AAd?$AAi?$AAv?$AA?$AA@ 0000000180022318     libucrt:lcidtoname_downlevel.obj
 0002:00004320       ??_C@_11LOCGONAA@?$AA?$AA@ 0000000180022320     libucrt:lcidtoname_downlevel.obj
 0002:00004328       ??_C@_1M@OKAHONE@?$AAa?$AAr?$AA?9?$AAS?$AAA?$AA?$AA@ 0000000180022328     libucrt:lcidtoname_downlevel.obj
 0002:00004338       ??_C@_1M@FFFIGIGK@?$AAb?$AAg?$AA?9?$AAB?$AAG?$AA?$AA@ 0000000180022338     libucrt:lcidtoname_downlevel.obj
 0002:00004348       ??_C@_1M@BJNKEDC@?$AAc?$AAa?$AA?9?$AAE?$AAS?$AA?$AA@ 0000000180022348     libucrt:lcidtoname_downlevel.obj
 0002:00004358       ??_C@_1M@IJJHFJHA@?$AAc?$AAs?$AA?9?$AAC?$AAZ?$AA?$AA@ 0000000180022358     libucrt:lcidtoname_downlevel.obj
 0002:00004368       ??_C@_1M@CLPEOBGI@?$AAd?$AAa?$AA?9?$AAD?$AAK?$AA?$AA@ 0000000180022368     libucrt:lcidtoname_downlevel.obj
 0002:00004378       ??_C@_1M@MCMADGCB@?$AAd?$AAe?$AA?9?$AAD?$AAE?$AA?$AA@ 0000000180022378     libucrt:lcidtoname_downlevel.obj
 0002:00004388       ??_C@_1M@OOCKEMAM@?$AAe?$AAl?$AA?9?$AAG?$AAR?$AA?$AA@ 0000000180022388     libucrt:lcidtoname_downlevel.obj
 0002:00004398       ??_C@_1M@DDNJFGID@?$AAf?$AAi?$AA?9?$AAF?$AAI?$AA?$AA@ 0000000180022398     libucrt:lcidtoname_downlevel.obj
 0002:000043a8       ??_C@_1M@GLIPPMAC@?$AAf?$AAr?$AA?9?$AAF?$AAR?$AA?$AA@ 00000001800223a8     libucrt:lcidtoname_downlevel.obj
 0002:000043b8       ??_C@_1M@GFMCHPE@?$AAh?$AAe?$AA?9?$AAI?$AAL?$AA?$AA@ 00000001800223b8     libucrt:lcidtoname_downlevel.obj
 0002:000043c8       ??_C@_1M@MHLPGNKM@?$AAh?$AAu?$AA?9?$AAH?$AAU?$AA?$AA@ 00000001800223c8     libucrt:lcidtoname_downlevel.obj
 0002:000043d8       ??_C@_1M@LPDDNNPN@?$AAi?$AAs?$AA?9?$AAI?$AAS?$AA?$AA@ 00000001800223d8     libucrt:lcidtoname_downlevel.obj
 0002:000043e8       ??_C@_1M@MADIPODN@?$AAi?$AAt?$AA?9?$AAI?$AAT?$AA?$AA@ 00000001800223e8     libucrt:lcidtoname_downlevel.obj
 0002:000043f8       ??_C@_1M@IHBJJGG@?$AAn?$AAl?$AA?9?$AAN?$AAL?$AA?$AA@ 00000001800223f8     libucrt:lcidtoname_downlevel.obj
 0002:00004408       ??_C@_1M@EANAGDL@?$AAn?$AAb?$AA?9?$AAN?$AAO?$AA?$AA@ 0000000180022408     libucrt:lcidtoname_downlevel.obj
 0002:00004418       ??_C@_1M@NEIEMEGP@?$AAp?$AAl?$AA?9?$AAP?$AAL?$AA?$AA@ 0000000180022418     libucrt:lcidtoname_downlevel.obj
 0002:00004428       ??_C@_1M@BOCFIGEP@?$AAp?$AAt?$AA?9?$AAB?$AAR?$AA?$AA@ 0000000180022428     libucrt:lcidtoname_downlevel.obj
 0002:00004438       ??_C@_1M@IMPFOPBG@?$AAr?$AAo?$AA?9?$AAR?$AAO?$AA?$AA@ 0000000180022438     libucrt:lcidtoname_downlevel.obj
 0002:00004448       ??_C@_1M@IDNNEJMM@?$AAr?$AAu?$AA?9?$AAR?$AAU?$AA?$AA@ 0000000180022448     libucrt:lcidtoname_downlevel.obj
 0002:00004458       ??_C@_1M@LILEEOGM@?$AAh?$AAr?$AA?9?$AAH?$AAR?$AA?$AA@ 0000000180022458     libucrt:lcidtoname_downlevel.obj
 0002:00004468       ??_C@_1M@FKIFEHPB@?$AAs?$AAk?$AA?9?$AAS?$AAK?$AA?$AA@ 0000000180022468     libucrt:lcidtoname_downlevel.obj
 0002:00004478       ??_C@_1M@LJMAMNPJ@?$AAs?$AAq?$AA?9?$AAA?$AAL?$AA?$AA@ 0000000180022478     libucrt:lcidtoname_downlevel.obj
 0002:00004488       ??_C@_1M@GIAKDKJK@?$AAs?$AAv?$AA?9?$AAS?$AAE?$AA?$AA@ 0000000180022488     libucrt:lcidtoname_downlevel.obj
 0002:00004498       ??_C@_1M@MKJKIKCL@?$AAt?$AAh?$AA?9?$AAT?$AAH?$AA?$AA@ 0000000180022498     libucrt:lcidtoname_downlevel.obj
 0002:000044a8       ??_C@_1M@MFLCCMPB@?$AAt?$AAr?$AA?9?$AAT?$AAR?$AA?$AA@ 00000001800224a8     libucrt:lcidtoname_downlevel.obj
 0002:000044b8       ??_C@_1M@OIJHDKJN@?$AAu?$AAr?$AA?9?$AAP?$AAK?$AA?$AA@ 00000001800224b8     libucrt:lcidtoname_downlevel.obj
 0002:000044c8       ??_C@_1M@LHIPCIEK@?$AAi?$AAd?$AA?9?$AAI?$AAD?$AA?$AA@ 00000001800224c8     libucrt:lcidtoname_downlevel.obj
 0002:000044d8       ??_C@_1M@MFMOBGI@?$AAu?$AAk?$AA?9?$AAU?$AAA?$AA?$AA@ 00000001800224d8     libucrt:lcidtoname_downlevel.obj
 0002:000044e8       ??_C@_1M@OBGLJIPL@?$AAb?$AAe?$AA?9?$AAB?$AAY?$AA?$AA@ 00000001800224e8     libucrt:lcidtoname_downlevel.obj
 0002:000044f8       ??_C@_1M@BCFAJEAD@?$AAs?$AAl?$AA?9?$AAS?$AAI?$AA?$AA@ 00000001800224f8     libucrt:lcidtoname_downlevel.obj
 0002:00004508       ??_C@_1M@FKFFEDDN@?$AAe?$AAt?$AA?9?$AAE?$AAE?$AA?$AA@ 0000000180022508     libucrt:lcidtoname_downlevel.obj
 0002:00004518       ??_C@_1M@KGKKAACI@?$AAl?$AAv?$AA?9?$AAL?$AAV?$AA?$AA@ 0000000180022518     libucrt:lcidtoname_downlevel.obj
 0002:00004528       ??_C@_1M@IFGBIJO@?$AAl?$AAt?$AA?9?$AAL?$AAT?$AA?$AA@ 0000000180022528     libucrt:lcidtoname_downlevel.obj
 0002:00004538       ??_C@_1M@FGEAHEDM@?$AAf?$AAa?$AA?9?$AAI?$AAR?$AA?$AA@ 0000000180022538     libucrt:lcidtoname_downlevel.obj
 0002:00004548       ??_C@_1M@KBMAIBFN@?$AAv?$AAi?$AA?9?$AAV?$AAN?$AA?$AA@ 0000000180022548     libucrt:lcidtoname_downlevel.obj
 0002:00004558       ??_C@_1M@GPCBKDJK@?$AAh?$AAy?$AA?9?$AAA?$AAM?$AA?$AA@ 0000000180022558     libucrt:lcidtoname_downlevel.obj
 0002:00004568       ??_C@_1BG@BECMDDJB@?$AAa?$AAz?$AA?9?$AAA?$AAZ?$AA?9?$AAL?$AAa?$AAt?$AAn?$AA?$AA@ 0000000180022568     libucrt:lcidtoname_downlevel.obj
 0002:00004580       ??_C@_1M@MAOFCAEA@?$AAe?$AAu?$AA?9?$AAE?$AAS?$AA?$AA@ 0000000180022580     libucrt:lcidtoname_downlevel.obj
 0002:00004590       ??_C@_1M@IGHABKPI@?$AAm?$AAk?$AA?9?$AAM?$AAK?$AA?$AA@ 0000000180022590     libucrt:lcidtoname_downlevel.obj
 0002:000045a0       ??_C@_1M@IAIGNEJG@?$AAt?$AAn?$AA?9?$AAZ?$AAA?$AA?$AA@ 00000001800225a0     libucrt:lcidtoname_downlevel.obj
 0002:000045b0       ??_C@_1M@IIJCOJFA@?$AAx?$AAh?$AA?9?$AAZ?$AAA?$AA?$AA@ 00000001800225b0     libucrt:lcidtoname_downlevel.obj
 0002:000045c0       ??_C@_1M@LGPJHNJH@?$AAz?$AAu?$AA?9?$AAZ?$AAA?$AA?$AA@ 00000001800225c0     libucrt:lcidtoname_downlevel.obj
 0002:000045d0       ??_C@_1M@HOKAOIO@?$AAa?$AAf?$AA?9?$AAZ?$AAA?$AA?$AA@ 00000001800225d0     libucrt:lcidtoname_downlevel.obj
 0002:000045e0       ??_C@_1M@DPCLHLIE@?$AAk?$AAa?$AA?9?$AAG?$AAE?$AA?$AA@ 00000001800225e0     libucrt:lcidtoname_downlevel.obj
 0002:000045f0       ??_C@_1M@BLKMHJBI@?$AAf?$AAo?$AA?9?$AAF?$AAO?$AA?$AA@ 00000001800225f0     libucrt:lcidtoname_downlevel.obj
 0002:00004600       ??_C@_1M@LGGJAPPB@?$AAh?$AAi?$AA?9?$AAI?$AAN?$AA?$AA@ 0000000180022600     libucrt:lcidtoname_downlevel.obj
 0002:00004610       ??_C@_1M@FIKPIHFE@?$AAm?$AAt?$AA?9?$AAM?$AAT?$AA?$AA@ 0000000180022610     libucrt:lcidtoname_downlevel.obj
 0002:00004620       ??_C@_1M@HEGGPBFA@?$AAs?$AAe?$AA?9?$AAN?$AAO?$AA?$AA@ 0000000180022620     libucrt:lcidtoname_downlevel.obj
 0002:00004630       ??_C@_1M@EIBJEEPA@?$AAm?$AAs?$AA?9?$AAM?$AAY?$AA?$AA@ 0000000180022630     libucrt:lcidtoname_downlevel.obj
 0002:00004640       ??_C@_1M@FHLBGMPP@?$AAk?$AAk?$AA?9?$AAK?$AAZ?$AA?$AA@ 0000000180022640     libucrt:lcidtoname_downlevel.obj
 0002:00004650       ??_C@_1M@NGJJLCGI@?$AAk?$AAy?$AA?9?$AAK?$AAG?$AA?$AA@ 0000000180022650     libucrt:lcidtoname_downlevel.obj
 0002:00004660       ??_C@_1M@GIENNBFC@?$AAs?$AAw?$AA?9?$AAK?$AAE?$AA?$AA@ 0000000180022660     libucrt:lcidtoname_downlevel.obj
 0002:00004670       ??_C@_1BG@NDGMJIMJ@?$AAu?$AAz?$AA?9?$AAU?$AAZ?$AA?9?$AAL?$AAa?$AAt?$AAn?$AA?$AA@ 0000000180022670     libucrt:lcidtoname_downlevel.obj
 0002:00004688       ??_C@_1M@IDCCIHBC@?$AAt?$AAt?$AA?9?$AAR?$AAU?$AA?$AA@ 0000000180022688     libucrt:lcidtoname_downlevel.obj
 0002:00004698       ??_C@_1M@LOICPMOJ@?$AAb?$AAn?$AA?9?$AAI?$AAN?$AA?$AA@ 0000000180022698     libucrt:lcidtoname_downlevel.obj
 0002:000046a8       ??_C@_1M@KPKKNEAH@?$AAp?$AAa?$AA?9?$AAI?$AAN?$AA?$AA@ 00000001800226a8     libucrt:lcidtoname_downlevel.obj
 0002:000046b8       ??_C@_1M@PJGPPBOG@?$AAg?$AAu?$AA?9?$AAI?$AAN?$AA?$AA@ 00000001800226b8     libucrt:lcidtoname_downlevel.obj
 0002:000046c8       ??_C@_1M@KMKMOPHI@?$AAt?$AAa?$AA?9?$AAI?$AAN?$AA?$AA@ 00000001800226c8     libucrt:lcidtoname_downlevel.obj
 0002:000046d8       ??_C@_1M@KFEHEPAC@?$AAt?$AAe?$AA?9?$AAI?$AAN?$AA?$AA@ 00000001800226d8     libucrt:lcidtoname_downlevel.obj
 0002:000046e8       ??_C@_1M@CDCLMGHI@?$AAk?$AAn?$AA?9?$AAI?$AAN?$AA?$AA@ 00000001800226e8     libucrt:lcidtoname_downlevel.obj
 0002:000046f8       ??_C@_1M@MIODLDKF@?$AAm?$AAl?$AA?9?$AAI?$AAN?$AA?$AA@ 00000001800226f8     libucrt:lcidtoname_downlevel.obj
 0002:00004708       ??_C@_1M@PBIEACPO@?$AAm?$AAr?$AA?9?$AAI?$AAN?$AA?$AA@ 0000000180022708     libucrt:lcidtoname_downlevel.obj
 0002:00004718       ??_C@_1M@NIDEAGPH@?$AAs?$AAa?$AA?9?$AAI?$AAN?$AA?$AA@ 0000000180022718     libucrt:lcidtoname_downlevel.obj
 0002:00004728       ??_C@_1M@FHIHCBIO@?$AAm?$AAn?$AA?9?$AAM?$AAN?$AA?$AA@ 0000000180022728     libucrt:lcidtoname_downlevel.obj
 0002:00004738       ??_C@_1M@JAIJPENP@?$AAc?$AAy?$AA?9?$AAG?$AAB?$AA?$AA@ 0000000180022738     libucrt:lcidtoname_downlevel.obj
 0002:00004748       ??_C@_1M@PHGFBEPN@?$AAg?$AAl?$AA?9?$AAE?$AAS?$AA?$AA@ 0000000180022748     libucrt:lcidtoname_downlevel.obj
 0002:00004758       ??_C@_1O@KPIPDNCP@?$AAk?$AAo?$AAk?$AA?9?$AAI?$AAN?$AA?$AA@ 0000000180022758     libucrt:lcidtoname_downlevel.obj
 0002:00004768       ??_C@_1O@KNHJLDJA@?$AAs?$AAy?$AAr?$AA?9?$AAS?$AAY?$AA?$AA@ 0000000180022768     libucrt:lcidtoname_downlevel.obj
 0002:00004778       ??_C@_1O@MKEKBLAH@?$AAd?$AAi?$AAv?$AA?9?$AAM?$AAV?$AA?$AA@ 0000000180022778     libucrt:lcidtoname_downlevel.obj
 0002:00004788       ??_C@_1O@OHDCKDDF@?$AAq?$AAu?$AAz?$AA?9?$AAB?$AAO?$AA?$AA@ 0000000180022788     libucrt:lcidtoname_downlevel.obj
 0002:00004798       ??_C@_1M@LEPJNLFD@?$AAn?$AAs?$AA?9?$AAZ?$AAA?$AA?$AA@ 0000000180022798     libucrt:lcidtoname_downlevel.obj
 0002:000047a8       ??_C@_1M@OMLEIIJB@?$AAm?$AAi?$AA?9?$AAN?$AAZ?$AA?$AA@ 00000001800227a8     libucrt:lcidtoname_downlevel.obj
 0002:000047b8       ??_C@_1M@PMPEAILG@?$AAa?$AAr?$AA?9?$AAI?$AAQ?$AA?$AA@ 00000001800227b8     libucrt:lcidtoname_downlevel.obj
 0002:000047c8       ??_C@_1M@CNKPNOEE@?$AAd?$AAe?$AA?9?$AAC?$AAH?$AA?$AA@ 00000001800227c8     libucrt:lcidtoname_downlevel.obj
 0002:000047d8       ??_C@_1M@LKMGMLKO@?$AAe?$AAn?$AA?9?$AAG?$AAB?$AA?$AA@ 00000001800227d8     libucrt:lcidtoname_downlevel.obj
 0002:000047e8       ??_C@_1M@PGKJFFGL@?$AAe?$AAs?$AA?9?$AAM?$AAX?$AA?$AA@ 00000001800227e8     libucrt:lcidtoname_downlevel.obj
 0002:000047f8       ??_C@_1M@DNNANBDC@?$AAf?$AAr?$AA?9?$AAB?$AAE?$AA?$AA@ 00000001800227f8     libucrt:lcidtoname_downlevel.obj
 0002:00004808       ??_C@_1M@HLGMDFHM@?$AAi?$AAt?$AA?9?$AAC?$AAH?$AA?$AA@ 0000000180022808     libucrt:lcidtoname_downlevel.obj
 0002:00004818       ??_C@_1M@CLLBGJH@?$AAn?$AAl?$AA?9?$AAB?$AAE?$AA?$AA@ 0000000180022818     libucrt:lcidtoname_downlevel.obj
 0002:00004828       ??_C@_1M@BODBOGLF@?$AAn?$AAn?$AA?9?$AAN?$AAO?$AA?$AA@ 0000000180022828     libucrt:lcidtoname_downlevel.obj
 0002:00004838       ??_C@_1M@HFFAHKAD@?$AAp?$AAt?$AA?9?$AAP?$AAT?$AA?$AA@ 0000000180022838     libucrt:lcidtoname_downlevel.obj
 0002:00004848       ??_C@_1BG@LNOAKHIE@?$AAs?$AAr?$AA?9?$AAS?$AAP?$AA?9?$AAL?$AAa?$AAt?$AAn?$AA?$AA@ 0000000180022848     libucrt:lcidtoname_downlevel.obj
 0002:00004860       ??_C@_1M@HBMHBGAK@?$AAs?$AAv?$AA?9?$AAF?$AAI?$AA?$AA@ 0000000180022860     libucrt:lcidtoname_downlevel.obj
 0002:00004870       ??_C@_1BG@DGCJGJBE@?$AAa?$AAz?$AA?9?$AAA?$AAZ?$AA?9?$AAC?$AAy?$AAr?$AAl?$AA?$AA@ 0000000180022870     libucrt:lcidtoname_downlevel.obj
 0002:00004888       ??_C@_1M@KEJDAAHB@?$AAs?$AAe?$AA?9?$AAS?$AAE?$AA?$AA@ 0000000180022888     libucrt:lcidtoname_downlevel.obj
 0002:00004898       ??_C@_1M@HEIBJJAD@?$AAm?$AAs?$AA?9?$AAB?$AAN?$AA?$AA@ 0000000180022898     libucrt:lcidtoname_downlevel.obj
 0002:000048a8       ??_C@_1BG@PBGJMCEM@?$AAu?$AAz?$AA?9?$AAU?$AAZ?$AA?9?$AAC?$AAy?$AAr?$AAl?$AA?$AA@ 00000001800228a8     libucrt:lcidtoname_downlevel.obj
 0002:000048c0       ??_C@_1O@LAOBCMDF@?$AAq?$AAu?$AAz?$AA?9?$AAE?$AAC?$AA?$AA@ 00000001800228c0     libucrt:lcidtoname_downlevel.obj
 0002:000048d0       ??_C@_1M@POEEMAIO@?$AAa?$AAr?$AA?9?$AAE?$AAG?$AA?$AA@ 00000001800228d0     libucrt:lcidtoname_downlevel.obj
 0002:000048e0       ??_C@_1M@EFAKDEDL@?$AAz?$AAh?$AA?9?$AAH?$AAK?$AA?$AA@ 00000001800228e0     libucrt:lcidtoname_downlevel.obj
 0002:000048f0       ??_C@_1M@HKKIJHGI@?$AAd?$AAe?$AA?9?$AAA?$AAT?$AA?$AA@ 00000001800228f0     libucrt:lcidtoname_downlevel.obj
 0002:00004900       ??_C@_1M@KBFBEHJF@?$AAe?$AAn?$AA?9?$AAA?$AAU?$AA?$AA@ 0000000180022900     libucrt:lcidtoname_downlevel.obj
 0002:00004910       ??_C@_1M@MNPLFAAH@?$AAe?$AAs?$AA?9?$AAE?$AAS?$AA?$AA@ 0000000180022910     libucrt:lcidtoname_downlevel.obj
 0002:00004920       ??_C@_1M@HJOOJFMA@?$AAf?$AAr?$AA?9?$AAC?$AAA?$AA?$AA@ 0000000180022920     libucrt:lcidtoname_downlevel.obj
 0002:00004930       ??_C@_1BG@JPOFPNAB@?$AAs?$AAr?$AA?9?$AAS?$AAP?$AA?9?$AAC?$AAy?$AAr?$AAl?$AA?$AA@ 0000000180022930     libucrt:lcidtoname_downlevel.obj
 0002:00004948       ??_C@_1M@LNFOCMOB@?$AAs?$AAe?$AA?9?$AAF?$AAI?$AA?$AA@ 0000000180022948     libucrt:lcidtoname_downlevel.obj
 0002:00004958       ??_C@_1O@MGJBOAMB@?$AAq?$AAu?$AAz?$AA?9?$AAP?$AAE?$AA?$AA@ 0000000180022958     libucrt:lcidtoname_downlevel.obj
 0002:00004968       ??_C@_1M@GJINLBOK@?$AAa?$AAr?$AA?9?$AAL?$AAY?$AA?$AA@ 0000000180022968     libucrt:lcidtoname_downlevel.obj
 0002:00004978       ??_C@_1M@GGMNHJNL@?$AAz?$AAh?$AA?9?$AAS?$AAG?$AA?$AA@ 0000000180022978     libucrt:lcidtoname_downlevel.obj
 0002:00004988       ??_C@_1M@HOIKODND@?$AAd?$AAe?$AA?9?$AAL?$AAU?$AA?$AA@ 0000000180022988     libucrt:lcidtoname_downlevel.obj
 0002:00004998       ??_C@_1M@DDOCCGFG@?$AAe?$AAn?$AA?9?$AAC?$AAA?$AA?$AA@ 0000000180022998     libucrt:lcidtoname_downlevel.obj
 0002:000049a8       ??_C@_1M@BNOEMJLF@?$AAe?$AAs?$AA?9?$AAG?$AAT?$AA?$AA@ 00000001800229a8     libucrt:lcidtoname_downlevel.obj
 0002:000049b8       ??_C@_1M@EOGNKEK@?$AAf?$AAr?$AA?9?$AAC?$AAH?$AA?$AA@ 00000001800229b8     libucrt:lcidtoname_downlevel.obj
 0002:000049c8       ??_C@_1M@FLIDJFHL@?$AAh?$AAr?$AA?9?$AAB?$AAA?$AA?$AA@ 00000001800229c8     libucrt:lcidtoname_downlevel.obj
 0002:000049d8       ??_C@_1O@FMCELNAJ@?$AAs?$AAm?$AAj?$AA?9?$AAN?$AAO?$AA?$AA@ 00000001800229d8     libucrt:lcidtoname_downlevel.obj
 0002:000049e8       ??_C@_1M@JHGLJMGJ@?$AAa?$AAr?$AA?9?$AAD?$AAZ?$AA?$AA@ 00000001800229e8     libucrt:lcidtoname_downlevel.obj
 0002:000049f8       ??_C@_1M@JKKFDCNP@?$AAz?$AAh?$AA?9?$AAM?$AAO?$AA?$AA@ 00000001800229f8     libucrt:lcidtoname_downlevel.obj
 0002:00004a08       ??_C@_1M@GEEFALPE@?$AAd?$AAe?$AA?9?$AAL?$AAI?$AA?$AA@ 0000000180022a08     libucrt:lcidtoname_downlevel.obj
 0002:00004a18       ??_C@_1M@IGEOFBG@?$AAe?$AAn?$AA?9?$AAN?$AAZ?$AA?$AA@ 0000000180022a18     libucrt:lcidtoname_downlevel.obj
 0002:00004a28       ??_C@_1M@KDBONEHP@?$AAe?$AAs?$AA?9?$AAC?$AAR?$AA?$AA@ 0000000180022a28     libucrt:lcidtoname_downlevel.obj
 0002:00004a38       ??_C@_1M@FHMDOHNN@?$AAf?$AAr?$AA?9?$AAL?$AAU?$AA?$AA@ 0000000180022a38     libucrt:lcidtoname_downlevel.obj
 0002:00004a48       ??_C@_1BG@NFKKMAFG@?$AAb?$AAs?$AA?9?$AAB?$AAA?$AA?9?$AAL?$AAa?$AAt?$AAn?$AA?$AA@ 0000000180022a48     libucrt:lcidtoname_downlevel.obj
 0002:00004a60       ??_C@_1O@IMNBEMCI@?$AAs?$AAm?$AAj?$AA?9?$AAS?$AAE?$AA?$AA@ 0000000180022a60     libucrt:lcidtoname_downlevel.obj
 0002:00004a70       ??_C@_1M@DHHMBNDP@?$AAa?$AAr?$AA?9?$AAM?$AAA?$AA?$AA@ 0000000180022a70     libucrt:lcidtoname_downlevel.obj
 0002:00004a80       ??_C@_1M@BNBLJCGH@?$AAe?$AAn?$AA?9?$AAI?$AAE?$AA?$AA@ 0000000180022a80     libucrt:lcidtoname_downlevel.obj
 0002:00004a90       ??_C@_1M@GEPAFMDL@?$AAe?$AAs?$AA?9?$AAP?$AAA?$AA?$AA@ 0000000180022a90     libucrt:lcidtoname_downlevel.obj
 0002:00004aa0       ??_C@_1M@OJONDMDL@?$AAf?$AAr?$AA?9?$AAM?$AAC?$AA?$AA@ 0000000180022aa0     libucrt:lcidtoname_downlevel.obj
 0002:00004ab0       ??_C@_1BG@OBCNFJB@?$AAs?$AAr?$AA?9?$AAB?$AAA?$AA?9?$AAL?$AAa?$AAt?$AAn?$AA?$AA@ 0000000180022ab0     libucrt:lcidtoname_downlevel.obj
 0002:00004ac8       ??_C@_1O@KEMEEGPO@?$AAs?$AAm?$AAa?$AA?9?$AAN?$AAO?$AA?$AA@ 0000000180022ac8     libucrt:lcidtoname_downlevel.obj
 0002:00004ad8       ??_C@_1M@ELMGFODK@?$AAa?$AAr?$AA?9?$AAT?$AAN?$AA?$AA@ 0000000180022ad8     libucrt:lcidtoname_downlevel.obj
 0002:00004ae8       ??_C@_1M@BHDLHFAF@?$AAe?$AAn?$AA?9?$AAZ?$AAA?$AA?$AA@ 0000000180022ae8     libucrt:lcidtoname_downlevel.obj
 0002:00004af8       ??_C@_1M@BMGIGLIF@?$AAe?$AAs?$AA?9?$AAD?$AAO?$AA?$AA@ 0000000180022af8     libucrt:lcidtoname_downlevel.obj
 0002:00004b08       ??_C@_1BG@CMBHIPBE@?$AAs?$AAr?$AA?9?$AAB?$AAA?$AA?9?$AAC?$AAy?$AAr?$AAl?$AA?$AA@ 0000000180022b08     libucrt:lcidtoname_downlevel.obj
 0002:00004b20       ??_C@_1O@HEDBLHNP@?$AAs?$AAm?$AAa?$AA?9?$AAS?$AAE?$AA?$AA@ 0000000180022b20     libucrt:lcidtoname_downlevel.obj
 0002:00004b30       ??_C@_1M@DAGCADIM@?$AAa?$AAr?$AA?9?$AAO?$AAM?$AA?$AA@ 0000000180022b30     libucrt:lcidtoname_downlevel.obj
 0002:00004b40       ??_C@_1M@FODLMICG@?$AAe?$AAn?$AA?9?$AAJ?$AAM?$AA?$AA@ 0000000180022b40     libucrt:lcidtoname_downlevel.obj
 0002:00004b50       ??_C@_1M@DNMLCIHB@?$AAe?$AAs?$AA?9?$AAV?$AAE?$AA?$AA@ 0000000180022b50     libucrt:lcidtoname_downlevel.obj
 0002:00004b60       ??_C@_1O@EOKHMKJK@?$AAs?$AAm?$AAs?$AA?9?$AAF?$AAI?$AA?$AA@ 0000000180022b60     libucrt:lcidtoname_downlevel.obj
 0002:00004b70       ??_C@_1M@CAFJMKOF@?$AAa?$AAr?$AA?9?$AAY?$AAE?$AA?$AA@ 0000000180022b70     libucrt:lcidtoname_downlevel.obj
 0002:00004b80       ??_C@_1M@CBFHIJLI@?$AAe?$AAn?$AA?9?$AAC?$AAB?$AA?$AA@ 0000000180022b80     libucrt:lcidtoname_downlevel.obj
 0002:00004b90       ??_C@_1M@BGNFLDN@?$AAe?$AAs?$AA?9?$AAC?$AAO?$AA?$AA@ 0000000180022b90     libucrt:lcidtoname_downlevel.obj
 0002:00004ba0       ??_C@_1O@JMPHMAMC@?$AAs?$AAm?$AAn?$AA?9?$AAF?$AAI?$AA?$AA@ 0000000180022ba0     libucrt:lcidtoname_downlevel.obj
 0002:00004bb0       ??_C@_1M@JLANABKE@?$AAa?$AAr?$AA?9?$AAS?$AAY?$AA?$AA@ 0000000180022bb0     libucrt:lcidtoname_downlevel.obj
 0002:00004bc0       ??_C@_1M@HPKGCFGN@?$AAe?$AAn?$AA?9?$AAB?$AAZ?$AA?$AA@ 0000000180022bc0     libucrt:lcidtoname_downlevel.obj
 0002:00004bd0       ??_C@_1M@OLJCMLGM@?$AAe?$AAs?$AA?9?$AAP?$AAE?$AA?$AA@ 0000000180022bd0     libucrt:lcidtoname_downlevel.obj
 0002:00004be0       ??_C@_1M@MKKGFKLE@?$AAa?$AAr?$AA?9?$AAJ?$AAO?$AA?$AA@ 0000000180022be0     libucrt:lcidtoname_downlevel.obj
 0002:00004bf0       ??_C@_1M@EKPGLDNI@?$AAe?$AAn?$AA?9?$AAT?$AAT?$AA?$AA@ 0000000180022bf0     libucrt:lcidtoname_downlevel.obj
 0002:00004c00       ??_C@_1M@OONGHFHE@?$AAe?$AAs?$AA?9?$AAA?$AAR?$AA?$AA@ 0000000180022c00     libucrt:lcidtoname_downlevel.obj
 0002:00004c10       ??_C@_1M@OOJFGBHE@?$AAa?$AAr?$AA?9?$AAL?$AAB?$AA?$AA@ 0000000180022c10     libucrt:lcidtoname_downlevel.obj
 0002:00004c20       ??_C@_1M@GCEJHNEG@?$AAe?$AAn?$AA?9?$AAZ?$AAW?$AA?$AA@ 0000000180022c20     libucrt:lcidtoname_downlevel.obj
 0002:00004c30       ??_C@_1M@JNOCAHJI@?$AAe?$AAs?$AA?9?$AAE?$AAC?$AA?$AA@ 0000000180022c30     libucrt:lcidtoname_downlevel.obj
 0002:00004c40       ??_C@_1M@JEFHPGGB@?$AAa?$AAr?$AA?9?$AAK?$AAW?$AA?$AA@ 0000000180022c40     libucrt:lcidtoname_downlevel.obj
 0002:00004c50       ??_C@_1M@MLKIBJOJ@?$AAe?$AAn?$AA?9?$AAP?$AAH?$AA?$AA@ 0000000180022c50     libucrt:lcidtoname_downlevel.obj
 0002:00004c60       ??_C@_1M@BDNIPEND@?$AAe?$AAs?$AA?9?$AAC?$AAL?$AA?$AA@ 0000000180022c60     libucrt:lcidtoname_downlevel.obj
 0002:00004c70       ??_C@_1M@MPNMEKBD@?$AAa?$AAr?$AA?9?$AAA?$AAE?$AA?$AA@ 0000000180022c70     libucrt:lcidtoname_downlevel.obj
 0002:00004c80       ??_C@_1M@KBJALCPI@?$AAe?$AAs?$AA?9?$AAU?$AAY?$AA?$AA@ 0000000180022c80     libucrt:lcidtoname_downlevel.obj
 0002:00004c90       ??_C@_1M@LLCCOAGA@?$AAa?$AAr?$AA?9?$AAB?$AAH?$AA?$AA@ 0000000180022c90     libucrt:lcidtoname_downlevel.obj
 0002:00004ca0       ??_C@_1M@PBFNCDEL@?$AAe?$AAs?$AA?9?$AAP?$AAY?$AA?$AA@ 0000000180022ca0     libucrt:lcidtoname_downlevel.obj
 0002:00004cb0       ??_C@_1M@EDGINPNP@?$AAa?$AAr?$AA?9?$AAQ?$AAA?$AA?$AA@ 0000000180022cb0     libucrt:lcidtoname_downlevel.obj
 0002:00004cc0       ??_C@_1M@MKDBIIJI@?$AAe?$AAs?$AA?9?$AAB?$AAO?$AA?$AA@ 0000000180022cc0     libucrt:lcidtoname_downlevel.obj
 0002:00004cd0       ??_C@_1M@CPKKEBLD@?$AAe?$AAs?$AA?9?$AAS?$AAV?$AA?$AA@ 0000000180022cd0     libucrt:lcidtoname_downlevel.obj
 0002:00004ce0       ??_C@_1M@NDBGMMJL@?$AAe?$AAs?$AA?9?$AAH?$AAN?$AA?$AA@ 0000000180022ce0     libucrt:lcidtoname_downlevel.obj
 0002:00004cf0       ??_C@_1M@JIJIBHDP@?$AAe?$AAs?$AA?9?$AAN?$AAI?$AA?$AA@ 0000000180022cf0     libucrt:lcidtoname_downlevel.obj
 0002:00004d00       ??_C@_1M@CGFMKEEK@?$AAe?$AAs?$AA?9?$AAP?$AAR?$AA?$AA@ 0000000180022d00     libucrt:lcidtoname_downlevel.obj
 0002:00004d10       ??_C@_1O@ICJHKIIK@?$AAz?$AAh?$AA?9?$AAC?$AAH?$AAT?$AA?$AA@ 0000000180022d10     libucrt:lcidtoname_downlevel.obj
 0002:00004d20       ??_C@_15CLNEJCE@?$AAs?$AAr?$AA?$AA@ 0000000180022d20     libucrt:lcidtoname_downlevel.obj
 0002:00005b70       ??_C@_1M@KAHEKEIG@?$AAa?$AAf?$AA?9?$AAz?$AAa?$AA?$AA@ 0000000180023b70     libucrt:lcidtoname_downlevel.obj
 0002:00005b80       ??_C@_1M@GIECOABL@?$AAa?$AAr?$AA?9?$AAa?$AAe?$AA?$AA@ 0000000180023b80     libucrt:lcidtoname_downlevel.obj
 0002:00005b90       ??_C@_1M@BMLMEKGI@?$AAa?$AAr?$AA?9?$AAb?$AAh?$AA?$AA@ 0000000180023b90     libucrt:lcidtoname_downlevel.obj
 0002:00005ba0       ??_C@_1M@DAPFDGGB@?$AAa?$AAr?$AA?9?$AAd?$AAz?$AA?$AA@ 0000000180023ba0     libucrt:lcidtoname_downlevel.obj
 0002:00005bb0       ??_C@_1M@FJNKGKIG@?$AAa?$AAr?$AA?9?$AAe?$AAg?$AA?$AA@ 0000000180023bb0     libucrt:lcidtoname_downlevel.obj
 0002:00005bc0       ??_C@_1M@FLGKKCLO@?$AAa?$AAr?$AA?9?$AAi?$AAq?$AA?$AA@ 0000000180023bc0     libucrt:lcidtoname_downlevel.obj
 0002:00005bd0       ??_C@_1M@GNDIPALM@?$AAa?$AAr?$AA?9?$AAj?$AAo?$AA?$AA@ 0000000180023bd0     libucrt:lcidtoname_downlevel.obj
 0002:00005be0       ??_C@_1M@DDMJFMGJ@?$AAa?$AAr?$AA?9?$AAk?$AAw?$AA?$AA@ 0000000180023be0     libucrt:lcidtoname_downlevel.obj
 0002:00005bf0       ??_C@_1M@EJALMLHM@?$AAa?$AAr?$AA?9?$AAl?$AAb?$AA?$AA@ 0000000180023bf0     libucrt:lcidtoname_downlevel.obj
 0002:00005c00       ??_C@_1M@MOBDBLOC@?$AAa?$AAr?$AA?9?$AAl?$AAy?$AA?$AA@ 0000000180023c00     libucrt:lcidtoname_downlevel.obj
 0002:00005c10       ??_C@_1M@JAOCLHDH@?$AAa?$AAr?$AA?9?$AAm?$AAa?$AA?$AA@ 0000000180023c10     libucrt:lcidtoname_downlevel.obj
 0002:00005c20       ??_C@_1M@JHPMKJIE@?$AAa?$AAr?$AA?9?$AAo?$AAm?$AA?$AA@ 0000000180023c20     libucrt:lcidtoname_downlevel.obj
 0002:00005c30       ??_C@_1M@OEPGHFNH@?$AAa?$AAr?$AA?9?$AAq?$AAa?$AA?$AA@ 0000000180023c30     libucrt:lcidtoname_downlevel.obj
 0002:00005c40       ??_C@_1M@KJDONENM@?$AAa?$AAr?$AA?9?$AAs?$AAa?$AA?$AA@ 0000000180023c40     libucrt:lcidtoname_downlevel.obj
 0002:00005c50       ??_C@_1M@DMJDKLKM@?$AAa?$AAr?$AA?9?$AAs?$AAy?$AA?$AA@ 0000000180023c50     libucrt:lcidtoname_downlevel.obj
 0002:00005c60       ??_C@_1M@OMFIPEDC@?$AAa?$AAr?$AA?9?$AAt?$AAn?$AA?$AA@ 0000000180023c60     libucrt:lcidtoname_downlevel.obj
 0002:00005c70       ??_C@_1M@IHMHGAON@?$AAa?$AAr?$AA?9?$AAy?$AAe?$AA?$AA@ 0000000180023c70     libucrt:lcidtoname_downlevel.obj
 0002:00005c80       ??_C@_1BG@KDCPGJGB@?$AAa?$AAz?$AA?9?$AAa?$AAz?$AA?9?$AAc?$AAy?$AAr?$AAl?$AA?$AA@ 0000000180023c80     libucrt:lcidtoname_downlevel.obj
 0002:00005c98       ??_C@_1BG@IBCKDDOE@?$AAa?$AAz?$AA?9?$AAa?$AAz?$AA?9?$AAl?$AAa?$AAt?$AAn?$AA?$AA@ 0000000180023c98     libucrt:lcidtoname_downlevel.obj
 0002:00005cb0       ??_C@_1M@EGPFDCPD@?$AAb?$AAe?$AA?9?$AAb?$AAy?$AA?$AA@ 0000000180023cb0     libucrt:lcidtoname_downlevel.obj
 0002:00005cc0       ??_C@_1M@PCMGMCGC@?$AAb?$AAg?$AA?9?$AAb?$AAg?$AA?$AA@ 0000000180023cc0     libucrt:lcidtoname_downlevel.obj
 0002:00005cd0       ??_C@_1M@BJBMFGOB@?$AAb?$AAn?$AA?9?$AAi?$AAn?$AA?$AA@ 0000000180023cd0     libucrt:lcidtoname_downlevel.obj
 0002:00005ce0       ??_C@_1BG@EAKMMACD@?$AAb?$AAs?$AA?9?$AAb?$AAa?$AA?9?$AAl?$AAa?$AAt?$AAn?$AA?$AA@ 0000000180023ce0     libucrt:lcidtoname_downlevel.obj
 0002:00005cf8       ??_C@_1M@KGADAODK@?$AAc?$AAa?$AA?9?$AAe?$AAs?$AA?$AA@ 0000000180023cf8     libucrt:lcidtoname_downlevel.obj
 0002:00005d08       ??_C@_1M@COAJPDHI@?$AAc?$AAs?$AA?9?$AAc?$AAz?$AA?$AA@ 0000000180023d08     libucrt:lcidtoname_downlevel.obj
 0002:00005d18       ??_C@_1M@DHBHFONH@?$AAc?$AAy?$AA?9?$AAg?$AAb?$AA?$AA@ 0000000180023d18     libucrt:lcidtoname_downlevel.obj
 0002:00005d28       ??_C@_1M@IMGKELGA@?$AAd?$AAa?$AA?9?$AAd?$AAk?$AA?$AA@ 0000000180023d28     libucrt:lcidtoname_downlevel.obj
 0002:00005d38       ??_C@_1M@NNDGDNGA@?$AAd?$AAe?$AA?9?$AAa?$AAt?$AA?$AA@ 0000000180023d38     libucrt:lcidtoname_downlevel.obj
 0002:00005d48       ??_C@_1M@IKDBHEEM@?$AAd?$AAe?$AA?9?$AAc?$AAh?$AA?$AA@ 0000000180023d48     libucrt:lcidtoname_downlevel.obj
 0002:00005d58       ??_C@_1M@GFFOJMCJ@?$AAd?$AAe?$AA?9?$AAd?$AAe?$AA?$AA@ 0000000180023d58     libucrt:lcidtoname_downlevel.obj
 0002:00005d68       ??_C@_1M@MDNLKBPM@?$AAd?$AAe?$AA?9?$AAl?$AAi?$AA?$AA@ 0000000180023d68     libucrt:lcidtoname_downlevel.obj
 0002:00005d78       ??_C@_1M@NJBEEJNL@?$AAd?$AAe?$AA?9?$AAl?$AAu?$AA?$AA@ 0000000180023d78     libucrt:lcidtoname_downlevel.obj
 0002:00005d88       ??_C@_1O@GNNELBAP@?$AAd?$AAi?$AAv?$AA?9?$AAm?$AAv?$AA?$AA@ 0000000180023d88     libucrt:lcidtoname_downlevel.obj
 0002:00005d98       ??_C@_1M@EJLEOGAE@?$AAe?$AAl?$AA?9?$AAg?$AAr?$AA?$AA@ 0000000180023d98     libucrt:lcidtoname_downlevel.obj
 0002:00005da8       ??_C@_1M@GMPONJN@?$AAe?$AAn?$AA?9?$AAa?$AAu?$AA?$AA@ 0000000180023da8     libucrt:lcidtoname_downlevel.obj
 0002:00005db8       ??_C@_1M@NIDIIPGF@?$AAe?$AAn?$AA?9?$AAb?$AAz?$AA?$AA@ 0000000180023db8     libucrt:lcidtoname_downlevel.obj
 0002:00005dc8       ??_C@_1M@JEHMIMFO@?$AAe?$AAn?$AA?9?$AAc?$AAa?$AA?$AA@ 0000000180023dc8     libucrt:lcidtoname_downlevel.obj
 0002:00005dd8       ??_C@_1M@IGMJCDLA@?$AAe?$AAn?$AA?9?$AAc?$AAb?$AA?$AA@ 0000000180023dd8     libucrt:lcidtoname_downlevel.obj
 0002:00005de8       ??_C@_1M@BNFIGBKG@?$AAe?$AAn?$AA?9?$AAg?$AAb?$AA?$AA@ 0000000180023de8     libucrt:lcidtoname_downlevel.obj
 0002:00005df8       ??_C@_1M@LKIFDIGP@?$AAe?$AAn?$AA?9?$AAi?$AAe?$AA?$AA@ 0000000180023df8     libucrt:lcidtoname_downlevel.obj
 0002:00005e08       ??_C@_1M@PJKFGCCO@?$AAe?$AAn?$AA?9?$AAj?$AAm?$AA?$AA@ 0000000180023e08     libucrt:lcidtoname_downlevel.obj
 0002:00005e18       ??_C@_1M@KPPKEPBO@?$AAe?$AAn?$AA?9?$AAn?$AAz?$AA?$AA@ 0000000180023e18     libucrt:lcidtoname_downlevel.obj
 0002:00005e28       ??_C@_1M@GMDGLDOB@?$AAe?$AAn?$AA?9?$AAp?$AAh?$AA?$AA@ 0000000180023e28     libucrt:lcidtoname_downlevel.obj
 0002:00005e38       ??_C@_1M@ONGIBJNA@?$AAe?$AAn?$AA?9?$AAt?$AAt?$AA?$AA@ 0000000180023e38     libucrt:lcidtoname_downlevel.obj
 0002:00005e48       ??_C@_1M@LLODPCMM@?$AAe?$AAn?$AA?9?$AAu?$AAs?$AA?$AA@ 0000000180023e48     libucrt:lcidtoname_downlevel.obj
 0002:00005e58       ??_C@_1M@LAKFNPAN@?$AAe?$AAn?$AA?9?$AAz?$AAa?$AA?$AA@ 0000000180023e58     libucrt:lcidtoname_downlevel.obj
 0002:00005e68       ??_C@_1M@MFNHNHEO@?$AAe?$AAn?$AA?9?$AAz?$AAw?$AA?$AA@ 0000000180023e68     libucrt:lcidtoname_downlevel.obj
 0002:00005e78       ??_C@_1M@EJEINPHM@?$AAe?$AAs?$AA?9?$AAa?$AAr?$AA?$AA@ 0000000180023e78     libucrt:lcidtoname_downlevel.obj
 0002:00005e88       ??_C@_1M@GNKPCCJA@?$AAe?$AAs?$AA?9?$AAb?$AAo?$AA?$AA@ 0000000180023e88     libucrt:lcidtoname_downlevel.obj
 0002:00005e98       ??_C@_1M@LEEGFONL@?$AAe?$AAs?$AA?9?$AAc?$AAl?$AA?$AA@ 0000000180023e98     libucrt:lcidtoname_downlevel.obj
 0002:00005ea8       ??_C@_1M@KGPDPBDF@?$AAe?$AAs?$AA?9?$AAc?$AAo?$AA?$AA@ 0000000180023ea8     libucrt:lcidtoname_downlevel.obj
 0002:00005eb8       ??_C@_1M@EIAHOHH@?$AAe?$AAs?$AA?9?$AAc?$AAr?$AA?$AA@ 0000000180023eb8     libucrt:lcidtoname_downlevel.obj
 0002:00005ec8       ??_C@_1M@LLPGMBIN@?$AAe?$AAs?$AA?9?$AAd?$AAo?$AA?$AA@ 0000000180023ec8     libucrt:lcidtoname_downlevel.obj
 0002:00005ed8       ??_C@_1M@DKHMKNJA@?$AAe?$AAs?$AA?9?$AAe?$AAc?$AA?$AA@ 0000000180023ed8     libucrt:lcidtoname_downlevel.obj
 0002:00005ee8       ??_C@_1M@GKGFPKAP@?$AAe?$AAs?$AA?9?$AAe?$AAs?$AA?$AA@ 0000000180023ee8     libucrt:lcidtoname_downlevel.obj
 0002:00005ef8       ??_C@_1M@LKHKGDLN@?$AAe?$AAs?$AA?9?$AAg?$AAt?$AA?$AA@ 0000000180023ef8     libucrt:lcidtoname_downlevel.obj
 0002:00005f08       ??_C@_1M@HEIIGGJD@?$AAe?$AAs?$AA?9?$AAh?$AAn?$AA?$AA@ 0000000180023f08     libucrt:lcidtoname_downlevel.obj
 0002:00005f18       ??_C@_1M@FBDHPPGD@?$AAe?$AAs?$AA?9?$AAm?$AAx?$AA?$AA@ 0000000180023f18     libucrt:lcidtoname_downlevel.obj
 0002:00005f28       ??_C@_1M@DPAGLNDH@?$AAe?$AAs?$AA?9?$AAn?$AAi?$AA?$AA@ 0000000180023f28     libucrt:lcidtoname_downlevel.obj
 0002:00005f38       ??_C@_1M@MDGOPGDD@?$AAe?$AAs?$AA?9?$AAp?$AAa?$AA?$AA@ 0000000180023f38     libucrt:lcidtoname_downlevel.obj
 0002:00005f48       ??_C@_1M@EMAMGBGE@?$AAe?$AAs?$AA?9?$AAp?$AAe?$AA?$AA@ 0000000180023f48     libucrt:lcidtoname_downlevel.obj
 0002:00005f58       ??_C@_1M@IBMCAOEC@?$AAe?$AAs?$AA?9?$AAp?$AAr?$AA?$AA@ 0000000180023f58     libucrt:lcidtoname_downlevel.obj
 0002:00005f68       ??_C@_1M@FGMDIJED@?$AAe?$AAs?$AA?9?$AAp?$AAy?$AA?$AA@ 0000000180023f68     libucrt:lcidtoname_downlevel.obj
 0002:00005f78       ??_C@_1M@IIDEOLLL@?$AAe?$AAs?$AA?9?$AAs?$AAv?$AA?$AA@ 0000000180023f78     libucrt:lcidtoname_downlevel.obj
 0002:00005f88       ??_C@_1M@GAOBIPA@?$AAe?$AAs?$AA?9?$AAu?$AAy?$AA?$AA@ 0000000180023f88     libucrt:lcidtoname_downlevel.obj
 0002:00005f98       ??_C@_1M@JKFFICHJ@?$AAe?$AAs?$AA?9?$AAv?$AAe?$AA?$AA@ 0000000180023f98     libucrt:lcidtoname_downlevel.obj
 0002:00005fa8       ??_C@_1M@PNMLOJDF@?$AAe?$AAt?$AA?9?$AAe?$AAe?$AA?$AA@ 0000000180023fa8     libucrt:lcidtoname_downlevel.obj
 0002:00005fb8       ??_C@_1M@GHHLIKEI@?$AAe?$AAu?$AA?9?$AAe?$AAs?$AA?$AA@ 0000000180023fb8     libucrt:lcidtoname_downlevel.obj
 0002:00005fc8       ??_C@_1M@PBNONODE@?$AAf?$AAa?$AA?9?$AAi?$AAr?$AA?$AA@ 0000000180023fc8     libucrt:lcidtoname_downlevel.obj
 0002:00005fd8       ??_C@_1M@JEEHPMIL@?$AAf?$AAi?$AA?9?$AAf?$AAi?$AA?$AA@ 0000000180023fd8     libucrt:lcidtoname_downlevel.obj
 0002:00005fe8       ??_C@_1M@LMDCNDBA@?$AAf?$AAo?$AA?9?$AAf?$AAo?$AA?$AA@ 0000000180023fe8     libucrt:lcidtoname_downlevel.obj
 0002:00005ff8       ??_C@_1M@JKEOHLDK@?$AAf?$AAr?$AA?9?$AAb?$AAe?$AA?$AA@ 0000000180023ff8     libucrt:lcidtoname_downlevel.obj
 0002:00006008       ??_C@_1M@NOHADPMI@?$AAf?$AAr?$AA?9?$AAc?$AAa?$AA?$AA@ 0000000180024008     libucrt:lcidtoname_downlevel.obj
 0002:00006018       ??_C@_1M@KDHIHAEC@?$AAf?$AAr?$AA?9?$AAc?$AAh?$AA?$AA@ 0000000180024018     libucrt:lcidtoname_downlevel.obj
 0002:00006028       ??_C@_1M@MMBBFGAK@?$AAf?$AAr?$AA?9?$AAf?$AAr?$AA?$AA@ 0000000180024028     libucrt:lcidtoname_downlevel.obj
 0002:00006038       ??_C@_1M@PAFNENNF@?$AAf?$AAr?$AA?9?$AAl?$AAu?$AA?$AA@ 0000000180024038     libucrt:lcidtoname_downlevel.obj
 0002:00006048       ??_C@_1M@EOHDJGDD@?$AAf?$AAr?$AA?9?$AAm?$AAc?$AA?$AA@ 0000000180024048     libucrt:lcidtoname_downlevel.obj
 0002:00006058       ??_C@_1M@FAPLLOPF@?$AAg?$AAl?$AA?9?$AAe?$AAs?$AA?$AA@ 0000000180024058     libucrt:lcidtoname_downlevel.obj
 0002:00006068       ??_C@_1M@FOPBFLOO@?$AAg?$AAu?$AA?9?$AAi?$AAn?$AA?$AA@ 0000000180024068     libucrt:lcidtoname_downlevel.obj
 0002:00006078       ??_C@_1M@KBMCINPM@?$AAh?$AAe?$AA?9?$AAi?$AAl?$AA?$AA@ 0000000180024078     libucrt:lcidtoname_downlevel.obj
 0002:00006088       ??_C@_1M@BBPHKFPJ@?$AAh?$AAi?$AA?9?$AAi?$AAn?$AA?$AA@ 0000000180024088     libucrt:lcidtoname_downlevel.obj
 0002:00006098       ??_C@_1M@PMBNDPHD@?$AAh?$AAr?$AA?9?$AAb?$AAa?$AA?$AA@ 0000000180024098     libucrt:lcidtoname_downlevel.obj
 0002:000060a8       ??_C@_1M@BPCKOEGE@?$AAh?$AAr?$AA?9?$AAh?$AAr?$AA?$AA@ 00000001800240a8     libucrt:lcidtoname_downlevel.obj
 0002:000060b8       ??_C@_1M@GACBMHKE@?$AAh?$AAu?$AA?9?$AAh?$AAu?$AA?$AA@ 00000001800240b8     libucrt:lcidtoname_downlevel.obj
 0002:000060c8       ??_C@_1M@MILPAJJC@?$AAh?$AAy?$AA?9?$AAa?$AAm?$AA?$AA@ 00000001800240c8     libucrt:lcidtoname_downlevel.obj
 0002:000060d8       ??_C@_1M@BABBICEC@?$AAi?$AAd?$AA?9?$AAi?$AAd?$AA?$AA@ 00000001800240d8     libucrt:lcidtoname_downlevel.obj
 0002:000060e8       ??_C@_1M@BIKNHHPF@?$AAi?$AAs?$AA?9?$AAi?$AAs?$AA?$AA@ 00000001800240e8     libucrt:lcidtoname_downlevel.obj
 0002:000060f8       ??_C@_1M@NMPCJPHE@?$AAi?$AAt?$AA?9?$AAc?$AAh?$AA?$AA@ 00000001800240f8     libucrt:lcidtoname_downlevel.obj
 0002:00006108       ??_C@_1M@GHKGFEDF@?$AAi?$AAt?$AA?9?$AAi?$AAt?$AA?$AA@ 0000000180024108     libucrt:lcidtoname_downlevel.obj
 0002:00006118       ??_C@_1M@NIEJCJJA@?$AAj?$AAa?$AA?9?$AAj?$AAp?$AA?$AA@ 0000000180024118     libucrt:lcidtoname_downlevel.obj
 0002:00006128       ??_C@_1M@JILFNBIM@?$AAk?$AAa?$AA?9?$AAg?$AAe?$AA?$AA@ 0000000180024128     libucrt:lcidtoname_downlevel.obj
 0002:00006138       ??_C@_1M@PACPMGPH@?$AAk?$AAk?$AA?9?$AAk?$AAz?$AA?$AA@ 0000000180024138     libucrt:lcidtoname_downlevel.obj
 0002:00006148       ??_C@_1M@IELFGMHA@?$AAk?$AAn?$AA?9?$AAi?$AAn?$AA?$AA@ 0000000180024148     libucrt:lcidtoname_downlevel.obj
 0002:00006158       ??_C@_1O@IBBJHCH@?$AAk?$AAo?$AAk?$AA?9?$AAi?$AAn?$AA?$AA@ 0000000180024158     libucrt:lcidtoname_downlevel.obj
 0002:00006168       ??_C@_1M@DMHAEOGC@?$AAk?$AAo?$AA?9?$AAk?$AAr?$AA?$AA@ 0000000180024168     libucrt:lcidtoname_downlevel.obj
 0002:00006178       ??_C@_1M@HBAHBIGA@?$AAk?$AAy?$AA?9?$AAk?$AAg?$AA?$AA@ 0000000180024178     libucrt:lcidtoname_downlevel.obj
 0002:00006188       ??_C@_1M@KPMILCJG@?$AAl?$AAt?$AA?9?$AAl?$AAt?$AA?$AA@ 0000000180024188     libucrt:lcidtoname_downlevel.obj
 0002:00006198       ??_C@_1M@BDEKKCA@?$AAl?$AAv?$AA?9?$AAl?$AAv?$AA?$AA@ 0000000180024198     libucrt:lcidtoname_downlevel.obj
 0002:000061a8       ??_C@_1M@ELCKCCJJ@?$AAm?$AAi?$AA?9?$AAn?$AAz?$AA?$AA@ 00000001800241a8     libucrt:lcidtoname_downlevel.obj
 0002:000061b8       ??_C@_1M@CBOOLAPA@?$AAm?$AAk?$AA?9?$AAm?$AAk?$AA?$AA@ 00000001800241b8     libucrt:lcidtoname_downlevel.obj
 0002:000061c8       ??_C@_1M@GPHNBJKN@?$AAm?$AAl?$AA?9?$AAi?$AAn?$AA?$AA@ 00000001800241c8     libucrt:lcidtoname_downlevel.obj
 0002:000061d8       ??_C@_1M@PABJILIG@?$AAm?$AAn?$AA?9?$AAm?$AAn?$AA?$AA@ 00000001800241d8     libucrt:lcidtoname_downlevel.obj
 0002:000061e8       ??_C@_1M@FGBKKIPG@?$AAm?$AAr?$AA?9?$AAi?$AAn?$AA?$AA@ 00000001800241e8     libucrt:lcidtoname_downlevel.obj
 0002:000061f8       ??_C@_1M@NDBPDDAL@?$AAm?$AAs?$AA?9?$AAb?$AAn?$AA?$AA@ 00000001800241f8     libucrt:lcidtoname_downlevel.obj
 0002:00006208       ??_C@_1M@OPIHOOPI@?$AAm?$AAs?$AA?9?$AAm?$AAy?$AA?$AA@ 0000000180024208     libucrt:lcidtoname_downlevel.obj
 0002:00006218       ??_C@_1M@PPDBCNFM@?$AAm?$AAt?$AA?9?$AAm?$AAt?$AA?$AA@ 0000000180024218     libucrt:lcidtoname_downlevel.obj
 0002:00006228       ??_C@_1M@KDJDKMDD@?$AAn?$AAb?$AA?9?$AAn?$AAo?$AA?$AA@ 0000000180024228     libucrt:lcidtoname_downlevel.obj
 0002:00006238       ??_C@_1M@KFCFLMJP@?$AAn?$AAl?$AA?9?$AAb?$AAe?$AA?$AA@ 0000000180024238     libucrt:lcidtoname_downlevel.obj
 0002:00006248       ??_C@_1M@KPOPDDGO@?$AAn?$AAl?$AA?9?$AAn?$AAl?$AA?$AA@ 0000000180024248     libucrt:lcidtoname_downlevel.obj
 0002:00006258       ??_C@_1M@LJKPEMLN@?$AAn?$AAn?$AA?9?$AAn?$AAo?$AA?$AA@ 0000000180024258     libucrt:lcidtoname_downlevel.obj
 0002:00006268       ??_C@_1M@BDGHHBFL@?$AAn?$AAs?$AA?9?$AAz?$AAa?$AA?$AA@ 0000000180024268     libucrt:lcidtoname_downlevel.obj
 0002:00006278       ??_C@_1M@IDEHOAP@?$AAp?$AAa?$AA?9?$AAi?$AAn?$AA?$AA@ 0000000180024278     libucrt:lcidtoname_downlevel.obj
 0002:00006288       ??_C@_1M@HDBKGOGH@?$AAp?$AAl?$AA?9?$AAp?$AAl?$AA?$AA@ 0000000180024288     libucrt:lcidtoname_downlevel.obj
 0002:00006298       ??_C@_1M@LJLLCMEH@?$AAp?$AAt?$AA?9?$AAb?$AAr?$AA?$AA@ 0000000180024298     libucrt:lcidtoname_downlevel.obj
 0002:000062a8       ??_C@_1M@NCMONAAL@?$AAp?$AAt?$AA?9?$AAp?$AAt?$AA?$AA@ 00000001800242a8     libucrt:lcidtoname_downlevel.obj
 0002:000062b8       ??_C@_1O@EAKMAJDN@?$AAq?$AAu?$AAz?$AA?9?$AAb?$AAo?$AA?$AA@ 00000001800242b8     libucrt:lcidtoname_downlevel.obj
 0002:000062c8       ??_C@_1O@BHHPIGDN@?$AAq?$AAu?$AAz?$AA?9?$AAe?$AAc?$AA?$AA@ 00000001800242c8     libucrt:lcidtoname_downlevel.obj
 0002:000062d8       ??_C@_1O@GBAPEKMJ@?$AAq?$AAu?$AAz?$AA?9?$AAp?$AAe?$AA?$AA@ 00000001800242d8     libucrt:lcidtoname_downlevel.obj
 0002:000062e8       ??_C@_1M@CLGLEFBO@?$AAr?$AAo?$AA?9?$AAr?$AAo?$AA?$AA@ 00000001800242e8     libucrt:lcidtoname_downlevel.obj
 0002:000062f8       ??_C@_1M@CEEDODME@?$AAr?$AAu?$AA?9?$AAr?$AAu?$AA?$AA@ 00000001800242f8     libucrt:lcidtoname_downlevel.obj
 0002:00006308       ??_C@_1M@HPKKKMPP@?$AAs?$AAa?$AA?9?$AAi?$AAn?$AA?$AA@ 0000000180024308     libucrt:lcidtoname_downlevel.obj
 0002:00006318       ??_C@_1M@BKMAIGOJ@?$AAs?$AAe?$AA?9?$AAf?$AAi?$AA?$AA@ 0000000180024318     libucrt:lcidtoname_downlevel.obj
 0002:00006328       ??_C@_1M@NDPIFLFI@?$AAs?$AAe?$AA?9?$AAn?$AAo?$AA?$AA@ 0000000180024328     libucrt:lcidtoname_downlevel.obj
 0002:00006338       ??_C@_1M@DANKKHJ@?$AAs?$AAe?$AA?9?$AAs?$AAe?$AA?$AA@ 0000000180024338     libucrt:lcidtoname_downlevel.obj
 0002:00006348       ??_C@_1M@PNBLONPJ@?$AAs?$AAk?$AA?9?$AAs?$AAk?$AA?$AA@ 0000000180024348     libucrt:lcidtoname_downlevel.obj
 0002:00006358       ??_C@_1M@LFMODOAL@?$AAs?$AAl?$AA?9?$AAs?$AAi?$AA?$AA@ 0000000180024358     libucrt:lcidtoname_downlevel.obj
 0002:00006368       ??_C@_1O@DFKOMPG@?$AAs?$AAm?$AAa?$AA?9?$AAn?$AAo?$AA?$AA@ 0000000180024368     libucrt:lcidtoname_downlevel.obj
 0002:00006378       ??_C@_1O@NDKPBNNH@?$AAs?$AAm?$AAa?$AA?9?$AAs?$AAe?$AA?$AA@ 0000000180024378     libucrt:lcidtoname_downlevel.obj
 0002:00006388       ??_C@_1O@PLLKBHAB@?$AAs?$AAm?$AAj?$AA?9?$AAn?$AAo?$AA?$AA@ 0000000180024388     libucrt:lcidtoname_downlevel.obj
 0002:00006398       ??_C@_1O@CLEPOGCA@?$AAs?$AAm?$AAj?$AA?9?$AAs?$AAe?$AA?$AA@ 0000000180024398     libucrt:lcidtoname_downlevel.obj
 0002:000063a8       ??_C@_1O@DLGJGKMK@?$AAs?$AAm?$AAn?$AA?9?$AAf?$AAi?$AA?$AA@ 00000001800243a8     libucrt:lcidtoname_downlevel.obj
 0002:000063b8       ??_C@_1O@OJDJGAJC@?$AAs?$AAm?$AAs?$AA?9?$AAf?$AAi?$AA?$AA@ 00000001800243b8     libucrt:lcidtoname_downlevel.obj
 0002:000063c8       ??_C@_1M@BOFOGHPB@?$AAs?$AAq?$AA?9?$AAa?$AAl?$AA?$AA@ 00000001800243c8     libucrt:lcidtoname_downlevel.obj
 0002:000063d8       ??_C@_1BG@LJBBIPGB@?$AAs?$AAr?$AA?9?$AAb?$AAa?$AA?9?$AAc?$AAy?$AAr?$AAl?$AA?$AA@ 00000001800243d8     libucrt:lcidtoname_downlevel.obj
 0002:000063f0       ??_C@_1BG@JLBENFOE@?$AAs?$AAr?$AA?9?$AAb?$AAa?$AA?9?$AAl?$AAa?$AAt?$AAn?$AA?$AA@ 00000001800243f0     libucrt:lcidtoname_downlevel.obj
 0002:00006408       ??_C@_1BG@KODPNHE@?$AAs?$AAr?$AA?9?$AAs?$AAp?$AA?9?$AAc?$AAy?$AAr?$AAl?$AA?$AA@ 0000000180024408     libucrt:lcidtoname_downlevel.obj
 0002:00006420       ??_C@_1BG@CIOGKHPB@?$AAs?$AAr?$AA?9?$AAs?$AAp?$AA?9?$AAl?$AAa?$AAt?$AAn?$AA?$AA@ 0000000180024420     libucrt:lcidtoname_downlevel.obj
 0002:00006438       ??_C@_1M@NGFJLMAC@?$AAs?$AAv?$AA?9?$AAf?$AAi?$AA?$AA@ 0000000180024438     libucrt:lcidtoname_downlevel.obj
 0002:00006448       ??_C@_1M@MPJEJAJC@?$AAs?$AAv?$AA?9?$AAs?$AAe?$AA?$AA@ 0000000180024448     libucrt:lcidtoname_downlevel.obj
 0002:00006458       ??_C@_1M@MPNDHLFK@?$AAs?$AAw?$AA?9?$AAk?$AAe?$AA?$AA@ 0000000180024458     libucrt:lcidtoname_downlevel.obj
 0002:00006468       ??_C@_1O@KOHBJJI@?$AAs?$AAy?$AAr?$AA?9?$AAs?$AAy?$AA?$AA@ 0000000180024468     libucrt:lcidtoname_downlevel.obj
 0002:00006478       ??_C@_1M@LDCEFHA@?$AAt?$AAa?$AA?9?$AAi?$AAn?$AA?$AA@ 0000000180024478     libucrt:lcidtoname_downlevel.obj
 0002:00006488       ??_C@_1M@CNJOFAK@?$AAt?$AAe?$AA?9?$AAi?$AAn?$AA?$AA@ 0000000180024488     libucrt:lcidtoname_downlevel.obj
 0002:00006498       ??_C@_1M@GNAECACD@?$AAt?$AAh?$AA?9?$AAt?$AAh?$AA?$AA@ 0000000180024498     libucrt:lcidtoname_downlevel.obj
 0002:000064a8       ??_C@_1M@CHBIHOJO@?$AAt?$AAn?$AA?9?$AAz?$AAa?$AA?$AA@ 00000001800244a8     libucrt:lcidtoname_downlevel.obj
 0002:000064b8       ??_C@_1M@GCCMIGPJ@?$AAt?$AAr?$AA?9?$AAt?$AAr?$AA?$AA@ 00000001800244b8     libucrt:lcidtoname_downlevel.obj
 0002:000064c8       ??_C@_1M@CELMCNBK@?$AAt?$AAt?$AA?9?$AAr?$AAu?$AA?$AA@ 00000001800244c8     libucrt:lcidtoname_downlevel.obj
 0002:000064d8       ??_C@_1M@KLMCELGA@?$AAu?$AAk?$AA?9?$AAu?$AAa?$AA?$AA@ 00000001800244d8     libucrt:lcidtoname_downlevel.obj
 0002:000064e8       ??_C@_1M@EPAJJAJF@?$AAu?$AAr?$AA?9?$AAp?$AAk?$AA?$AA@ 00000001800244e8     libucrt:lcidtoname_downlevel.obj
 0002:000064f8       ??_C@_1BG@GEGPMCDJ@?$AAu?$AAz?$AA?9?$AAu?$AAz?$AA?9?$AAc?$AAy?$AAr?$AAl?$AA?$AA@ 00000001800244f8     libucrt:lcidtoname_downlevel.obj
 0002:00006510       ??_C@_1BG@EGGKJILM@?$AAu?$AAz?$AA?9?$AAu?$AAz?$AA?9?$AAl?$AAa?$AAt?$AAn?$AA?$AA@ 0000000180024510     libucrt:lcidtoname_downlevel.obj
 0002:00006528       ??_C@_1M@GFOCLFF@?$AAv?$AAi?$AA?9?$AAv?$AAn?$AA?$AA@ 0000000180024528     libucrt:lcidtoname_downlevel.obj
 0002:00006538       ??_C@_1M@CPAMEDFI@?$AAx?$AAh?$AA?9?$AAz?$AAa?$AA?$AA@ 0000000180024538     libucrt:lcidtoname_downlevel.obj
 0002:00006548       ??_C@_1O@EBKIFIGN@?$AAz?$AAh?$AA?9?$AAc?$AAh?$AAs?$AA?$AA@ 0000000180024548     libucrt:lcidtoname_downlevel.obj
 0002:00006558       ??_C@_1O@NMHPGANE@?$AAz?$AAh?$AA?9?$AAc?$AAh?$AAt?$AA?$AA@ 0000000180024558     libucrt:lcidtoname_downlevel.obj
 0002:00006568       ??_C@_1M@LPINJOMC@?$AAz?$AAh?$AA?9?$AAc?$AAn?$AA?$AA@ 0000000180024568     libucrt:lcidtoname_downlevel.obj
 0002:00006578       ??_C@_1M@OCJEJODD@?$AAz?$AAh?$AA?9?$AAh?$AAk?$AA?$AA@ 0000000180024578     libucrt:lcidtoname_downlevel.obj
 0002:00006588       ??_C@_1M@DNDLJINH@?$AAz?$AAh?$AA?9?$AAm?$AAo?$AA?$AA@ 0000000180024588     libucrt:lcidtoname_downlevel.obj
 0002:00006598       ??_C@_1M@MBFDNDND@?$AAz?$AAh?$AA?9?$AAs?$AAg?$AA?$AA@ 0000000180024598     libucrt:lcidtoname_downlevel.obj
 0002:000065a8       ??_C@_1M@IMEPLEPE@?$AAz?$AAh?$AA?9?$AAt?$AAw?$AA?$AA@ 00000001800245a8     libucrt:lcidtoname_downlevel.obj
 0002:000065b8       ??_C@_1M@BBGHNHJP@?$AAz?$AAu?$AA?9?$AAz?$AAa?$AA?$AA@ 00000001800245b8     libucrt:lcidtoname_downlevel.obj
 0002:000065d0       ?large_power_data@?1??multiply_by_power_of_ten@__crt_strtox@@YA_NAEAUbig_integer@2@I@Z@4QBIB 00000001800245d0     libucrt:cfout.obj
 0002:00006ee0       ?large_power_indices@?1??multiply_by_power_of_ten@__crt_strtox@@YA_NAEAUbig_integer@2@I@Z@4QBUunpack_index@?1??12@YA_N0I@Z@B 0000000180024ee0     libucrt:cfout.obj
 0002:00006f78       ?small_powers_of_ten@?6??multiply_by_power_of_ten@__crt_strtox@@YA_NAEAUbig_integer@2@I@Z@4QBIB 0000000180024f78     libucrt:cfout.obj
 0002:00006f9c       ??_C@_01GBGANLPD@0?$AA@    0000000180024f9c     libucrt:cfout.obj
 0002:00006fa0       ??_C@_05DNEBIAHO@1?$CDINF?$AA@ 0000000180024fa0     libucrt:cfout.obj
 0002:00006fa8       ??_C@_06IMKFLFPG@1?$CDQNAN?$AA@ 0000000180024fa8     libucrt:cfout.obj
 0002:00006fb0       ??_C@_06PGGFOGJG@1?$CDSNAN?$AA@ 0000000180024fb0     libucrt:cfout.obj
 0002:00006fb8       ??_C@_05PHHOCPM@1?$CDIND?$AA@ 0000000180024fb8     libucrt:cfout.obj
 0002:00006fc0       __real@3ff0000000000000    0000000180024fc0     libucrt:ceil.obj
 0002:00007220       ??_C@_1BA@BALFACEM@?$AAC?$AAO?$AAN?$AAO?$AAU?$AAT?$AA$?$AA?$AA@ 0000000180025220     libucrt:initcon.obj
 0002:00007230       __log10_256_lead           0000000180025230     libucrt:log10_256_lead_tail_table.obj
 0002:00007a40       __log10_256_tail           0000000180025a40     libucrt:log10_256_lead_tail_table.obj
 0002:00008250       __log_F_inv_qword          0000000180026250     libucrt:log_f_inv_qword_table.obj
 0002:00008a60       ??_C@_05HGHHAHAP@log10?$AA@ 0000000180026a60     libucrt:log_special.obj
 0002:00008a80       ??_C@_0BA@JFNIOLAK@string?5too?5long?$AA@ 0000000180026a80     scrypt_common.obj
 0002:00008a90       ??_C@_07IPNMCAN@success?$AA@ 0000000180026a90     scrypt_common.obj
 0002:00008a98       ??_C@_0CH@HOFNEDKD@getrlimit?5or?5sysctl?$CIhw?4usermem?$CJ?5@ 0000000180026a98     scrypt_common.obj
 0002:00008ac0       ??_C@_0CF@KLABMAOP@clock_getres?5or?5clock_gettime?5fa@ 0000000180026ac0     scrypt_common.obj
 0002:00008ae8       ??_C@_0BM@PELKOOBE@error?5computing?5derived?5key?$AA@ 0000000180026ae8     scrypt_common.obj
 0002:00008b08       ??_C@_0CG@OEOCPJCD@could?5not?5read?5salt?5from?5?1dev?1ur@ 0000000180026b08     scrypt_common.obj
 0002:00008b30       ??_C@_0BB@LALBBILB@error?5in?5OpenSSL?$AA@ 0000000180026b30     scrypt_common.obj
 0002:00008b48       ??_C@_0O@IMHFIAOC@malloc?5failed?$AA@ 0000000180026b48     scrypt_common.obj
 0002:00008b58       ??_C@_0CL@ECCMPNEC@data?5is?5not?5a?5valid?5scrypt?9encry@ 0000000180026b58     scrypt_common.obj
 0002:00008b88       ??_C@_0BL@LEDPCGLM@unrecognized?5scrypt?5format?$AA@ 0000000180026b88     scrypt_common.obj
 0002:00008ba8       ??_C@_0CL@MEKMMADP@decrypting?5file?5would?5take?5too?5m@ 0000000180026ba8     scrypt_common.obj
 0002:00008bd8       ??_C@_0CE@OBGMJCII@decrypting?5file?5would?5take?5too?5l@ 0000000180026bd8     scrypt_common.obj
 0002:00008c00       ??_C@_0BG@DFBEGIDH@password?5is?5incorrect?$AA@ 0000000180026c00     scrypt_common.obj
 0002:00008c18       ??_C@_0BK@FLCPNNLJ@error?5writing?5output?5file?$AA@ 0000000180026c18     scrypt_common.obj
 0002:00008c38       ??_C@_0BJ@HGNNPBNC@error?5reading?5input?5file?$AA@ 0000000180026c38     scrypt_common.obj
 0002:00008c58       ??_C@_0N@CBGOPKMC@error?5unkown?$AA@ 0000000180026c58     scrypt_common.obj
 0002:00008c68       ??_C@_03NLJIHOMM@?5?9?5?$AA@ 0000000180026c68     scrypt_common.obj
 0002:00008c70       ??_C@_0BI@CFPLBAOH@invalid?5string?5position?$AA@ 0000000180026c70     scrypt_common.obj
 0002:00008c88       ??_C@_01NANMIPIL@N?$AA@    0000000180026c88     scrypt_params_async.obj
 0002:00008c8c       ??_C@_01KDCPPGHE@r?$AA@    0000000180026c8c     scrypt_params_async.obj
 0002:00008c90       ??_C@_01JBBJJEPG@p?$AA@    0000000180026c90     scrypt_params_async.obj
 0002:00008c98       ??_7AsyncWorker@Nan@@6B@   0000000180026c98     scrypt_params_async.obj
 0002:00008cc8       ??_7ScryptParamsAsyncWorker@@6B@ 0000000180026cc8     scrypt_params_async.obj
 0002:00008d00       ??_C@_1GC@OICHAIAC@?$AAD?$AA?3?$AA?2?$AAL?$AAi?$AAn?$AAu?$AAx?$AAS?$AAh?$AAa?$AAr?$AAe?$AA?2?$AAe?$AAt?$AAh?$AA?2?$AAc?$AAl?$AAi?$AAe?$AAn?$AAt?$AA3?$AA?2?$AAn?$AAo?$AAd?$AAe?$AA_?$AAm@ 0000000180026d00     scrypt_kdf_async.obj
 0002:00008d70       ??_C@_1FM@LOELJOFK@?$AAs?$AAi?$AAz?$AAe?$AA?5?$AA?$DM?$AA?$DN?$AA?5?$AAi?$AAm?$AAp?$AA?3?$AA?3?$AAk?$AAM?$AAa?$AAx?$AAL?$AAe?$AAn?$AAg?$AAt?$AAh?$AA?5?$AA?$CG?$AA?$CG?$AA?5?$AA?$CC?$AAt?$AAo?$AAo?$AA?5@ 0000000180026d70     scrypt_kdf_async.obj
 0002:00008dd0       ??_C@_09EDMIOGPB@keyBuffer?$AA@ 0000000180026dd0     scrypt_kdf_async.obj
 0002:00008de0       ??_C@_09BCNNNAMP@KDFResult?$AA@ 0000000180026de0     scrypt_kdf_async.obj
 0002:00008dec       ??_C@_04OKLIMCN@salt?$AA@  0000000180026dec     scrypt_kdf_async.obj
 0002:00008df8       ??_C@_0BG@OMGPOKGA@ScryptPeristentObject?$AA@ 0000000180026df8     scrypt_kdf_async.obj
 0002:00008e10       ??_7ScryptKDFAsyncWorker@@6B@ 0000000180026e10     scrypt_kdf_async.obj
 0002:00008e40       ??_C@_09MFPCDCBA@KDFBuffer?$AA@ 0000000180026e40     scrypt_kdf-verify_async.obj
 0002:00008e50       ??_C@_09MJFOFCB@KeyBuffer?$AA@ 0000000180026e50     scrypt_kdf-verify_async.obj
 0002:00008e60       ??_7ScryptKDFVerifyAsyncWorker@@6B@ 0000000180026e60     scrypt_kdf-verify_async.obj
 0002:00008e90       ??_C@_0L@NPKHFNEG@HashBuffer?$AA@ 0000000180026e90     scrypt_hash_async.obj
 0002:00008ea0       ??_C@_0L@KBNLHAN@SaltBuffer?$AA@ 0000000180026ea0     scrypt_hash_async.obj
 0002:00008eb0       ??_7ScryptHashAsyncWorker@@6B@ 0000000180026eb0     scrypt_hash_async.obj
 0002:00008ee0       ??_C@_0L@JEKBOONB@paramsSync?$AA@ 0000000180026ee0     scrypt_node.obj
 0002:00008eec       ??_C@_06JMGHNNK@params?$AA@ 0000000180026eec     scrypt_node.obj
 0002:00008ef8       ??_C@_07NDBFJMIJ@kdfSync?$AA@ 0000000180026ef8     scrypt_node.obj
 0002:00008f00       ??_C@_03EOOFPPDM@kdf?$AA@  0000000180026f00     scrypt_node.obj
 0002:00008f08       ??_C@_0L@FIGOIMB@verifySync?$AA@ 0000000180026f08     scrypt_node.obj
 0002:00008f14       ??_C@_06MCIJCFHC@verify?$AA@ 0000000180026f14     scrypt_node.obj
 0002:00008f20       ??_C@_08LODGKLAK@hashSync?$AA@ 0000000180026f20     scrypt_node.obj
 0002:00008f2c       ??_C@_04OIJGJDKO@hash?$AA@ 0000000180026f2c     scrypt_node.obj
 0002:00008f38       ??_C@_0BC@MKEKHEBE@?4?4?2scrypt_node?4cc?$AA@ 0000000180026f38     scrypt_node.obj
 0002:00008f4c       ??_C@_06LLPEBPNI@scrypt?$AA@ 0000000180026f4c     scrypt_node.obj
 0002:00008f60       ??_C@_1GA@LJLCNNHF@?$AA?4?$AA?4?$AA?2?$AAs?$AAc?$AAr?$AAy?$AAp?$AAt?$AA?2?$AAs?$AAc?$AAr?$AAy?$AAp?$AAt?$AA?9?$AA1?$AA?4?$AA2?$AA?4?$AA0?$AA?2?$AAl?$AAi?$AAb?$AAc?$AAp?$AAe?$AAr?$AAc?$AAi@ 0000000180026f60     scrypt_lib:sha256.obj
 0002:00008fc0       ??_C@_1EG@KGGIIOCD@?$AAd?$AAk?$AAL?$AAe?$AAn?$AA?5?$AA?$DM?$AA?$DN?$AA?5?$AA3?$AA2?$AA?5?$AA?$CK?$AA?5?$AA?$CI?$AAs?$AAi?$AAz?$AAe?$AA_?$AAt?$AA?$CJ?$AA?$CI?$AAU?$AAI?$AAN?$AAT?$AA3?$AA2?$AA_?$AAM?$AAA@ 0000000180026fc0     scrypt_lib:sha256.obj
 0002:00009030       ??_C@_0O@GFBIGFGC@pleaseletmein?$AA@ 0000000180027030     scrypt_lib:crypto_scrypt.obj
 0002:00009040       ??_C@_0P@HOJBDGEG@SodiumChloride?$AA@ 0000000180027040     scrypt_lib:crypto_scrypt.obj
 0002:00009050       ??_C@_0DD@JFPMEIE@Generic?5scrypt?5code?5is?5broken?5?9?5@ 0000000180027050     scrypt_lib:crypto_scrypt.obj
 0002:00009088       ??_C@_09GPGAJHPD@?$CIunknown?$CJ?$AA@ 0000000180027088     scrypt_lib:warnp.obj
 0002:00009094       ??_C@_02DKCKIIND@?$CFs?$AA@ 0000000180027094     scrypt_lib:warnp.obj
 0002:00009098       ??_C@_02LMMGGCAJ@?3?5?$AA@ 0000000180027098     scrypt_lib:warnp.obj
 0002:0000909c       ??_C@_01EEMJAFIK@?6?$AA@   000000018002709c     scrypt_lib:warnp.obj
 0002:00009118       __real@3e112e0be826d695    0000000180027118     scrypt_lib:scryptenc_cpuperf.obj
 0002:00009120       __real@3f50624dd2f1a9fc    0000000180027120     scrypt_lib:scryptenc_cpuperf.obj
 0002:00009128       __real@3fd0000000000000    0000000180027128     scrypt_wrapper:pickparams.obj
 0002:00009130       __real@3fe0000000000000    0000000180027130     scrypt_wrapper:memlimit.obj
 0002:00009138       __real@40e0000000000000    0000000180027138     scrypt_wrapper:pickparams.obj
 0002:00009140       __real@41cfffffff800000    0000000180027140     scrypt_wrapper:pickparams.obj
 0002:00009148       __real@43e0000000000000    0000000180027148     scrypt_wrapper:memlimit.obj
 0002:00009150       __real@43f0000000000000    0000000180027150     scrypt_wrapper:memlimit.obj
 0002:00009640       _load_config_used          0000000180027640     LIBCMT:loadcfg.obj
 0002:000096d8       ??_R4exception@std@@6B@    00000001800276d8     libcpmt:xthrow.obj
 0002:00009700       ??_R3exception@std@@8      0000000180027700     libcpmt:xthrow.obj
 0002:00009718       ??_R2exception@std@@8      0000000180027718     libcpmt:xthrow.obj
 0002:00009728       ??_R1A@?0A@EA@exception@std@@8 0000000180027728     libcpmt:xthrow.obj
 0002:00009750       ??_R4bad_alloc@std@@6B@    0000000180027750     libcpmt:xthrow.obj
 0002:00009778       ??_R3bad_alloc@std@@8      0000000180027778     libcpmt:xthrow.obj
 0002:00009790       ??_R2bad_alloc@std@@8      0000000180027790     libcpmt:xthrow.obj
 0002:000097a8       ??_R1A@?0A@EA@bad_alloc@std@@8 00000001800277a8     libcpmt:xthrow.obj
 0002:000097d0       ??_R4logic_error@std@@6B@  00000001800277d0     libcpmt:xthrow.obj
 0002:000097f8       ??_R3logic_error@std@@8    00000001800277f8     libcpmt:xthrow.obj
 0002:00009810       ??_R2logic_error@std@@8    0000000180027810     libcpmt:xthrow.obj
 0002:00009828       ??_R1A@?0A@EA@logic_error@std@@8 0000000180027828     libcpmt:xthrow.obj
 0002:00009850       ??_R4length_error@std@@6B@ 0000000180027850     libcpmt:xthrow.obj
 0002:00009878       ??_R3length_error@std@@8   0000000180027878     libcpmt:xthrow.obj
 0002:00009890       ??_R2length_error@std@@8   0000000180027890     libcpmt:xthrow.obj
 0002:000098b0       ??_R1A@?0A@EA@length_error@std@@8 00000001800278b0     libcpmt:xthrow.obj
 0002:000098d8       ??_R4out_of_range@std@@6B@ 00000001800278d8     libcpmt:xthrow.obj
 0002:00009900       ??_R3out_of_range@std@@8   0000000180027900     libcpmt:xthrow.obj
 0002:00009918       ??_R2out_of_range@std@@8   0000000180027918     libcpmt:xthrow.obj
 0002:00009938       ??_R1A@?0A@EA@out_of_range@std@@8 0000000180027938     libcpmt:xthrow.obj
 0002:00009960       ??_R4type_info@@6B@        0000000180027960     LIBCMT:std_type_info_static.obj
 0002:00009988       ??_R3type_info@@8          0000000180027988     LIBCMT:std_type_info_static.obj
 0002:000099a0       ??_R2type_info@@8          00000001800279a0     LIBCMT:std_type_info_static.obj
 0002:000099b0       ??_R1A@?0A@EA@type_info@@8 00000001800279b0     LIBCMT:std_type_info_static.obj
 0002:000099d8       ??_R4bad_array_new_length@std@@6B@ 00000001800279d8     LIBCMT:throw_bad_alloc.obj
 0002:00009a00       ??_R3bad_array_new_length@std@@8 0000000180027a00     LIBCMT:throw_bad_alloc.obj
 0002:00009a18       ??_R2bad_array_new_length@std@@8 0000000180027a18     LIBCMT:throw_bad_alloc.obj
 0002:00009a38       ??_R1A@?0A@EA@bad_array_new_length@std@@8 0000000180027a38     LIBCMT:throw_bad_alloc.obj
 0002:00009a60       ??_R4bad_exception@std@@6B@ 0000000180027a60     libvcruntime:frame.obj
 0002:00009a88       ??_R3bad_exception@std@@8  0000000180027a88     libvcruntime:frame.obj
 0002:00009aa0       ??_R2bad_exception@std@@8  0000000180027aa0     libvcruntime:frame.obj
 0002:00009ab8       ??_R1A@?0A@EA@bad_exception@std@@8 0000000180027ab8     libvcruntime:frame.obj
 0002:00009e40       __rtc_iaa                  0000000180027e40     LIBCMT:_initsect_.obj
 0002:00009e48       __rtc_izz                  0000000180027e48     LIBCMT:_initsect_.obj
 0002:00009e50       __rtc_taa                  0000000180027e50     LIBCMT:_initsect_.obj
 0002:00009e58       __rtc_tzz                  0000000180027e58     LIBCMT:_initsect_.obj
 0002:0000bba0       _TI2?AVbad_alloc@std@@     0000000180029ba0     libcpmt:xthrow.obj
 0002:0000bbc0       _CTA2?AVbad_alloc@std@@    0000000180029bc0     libcpmt:xthrow.obj
 0002:0000bbd8       _CT??_R0?AVbad_alloc@std@@@8??0bad_alloc@std@@QEAA@AEBV01@@Z24 0000000180029bd8     libcpmt:xthrow.obj
 0002:0000bc00       _CT??_R0?AVexception@std@@@8??0exception@std@@QEAA@AEBV01@@Z24 0000000180029c00     libcpmt:xthrow.obj
 0002:0000bc28       _CT??_R0?AVlogic_error@std@@@8??0logic_error@std@@QEAA@AEBV01@@Z24 0000000180029c28     libcpmt:xthrow.obj
 0002:0000bc50       _TI3?AVlength_error@std@@  0000000180029c50     libcpmt:xthrow.obj
 0002:0000bc70       _CTA3?AVlength_error@std@@ 0000000180029c70     libcpmt:xthrow.obj
 0002:0000bc90       _CT??_R0?AVlength_error@std@@@8??0length_error@std@@QEAA@AEBV01@@Z24 0000000180029c90     libcpmt:xthrow.obj
 0002:0000bcb8       _TI3?AVout_of_range@std@@  0000000180029cb8     libcpmt:xthrow.obj
 0002:0000bcd8       _CTA3?AVout_of_range@std@@ 0000000180029cd8     libcpmt:xthrow.obj
 0002:0000bcf8       _CT??_R0?AVout_of_range@std@@@8??0out_of_range@std@@QEAA@AEBV01@@Z24 0000000180029cf8     libcpmt:xthrow.obj
 0002:0000bd20       _TI3?AVbad_array_new_length@std@@ 0000000180029d20     LIBCMT:throw_bad_alloc.obj
 0002:0000bd40       _CTA3?AVbad_array_new_length@std@@ 0000000180029d40     LIBCMT:throw_bad_alloc.obj
 0002:0000bd60       _CT??_R0?AVbad_array_new_length@std@@@8??0bad_array_new_length@std@@QEAA@AEBV01@@Z24 0000000180029d60     LIBCMT:throw_bad_alloc.obj
 0002:0000bd88       _TI2?AVbad_exception@std@@ 0000000180029d88     libvcruntime:frame.obj
 0002:0000bda8       _CTA2?AVbad_exception@std@@ 0000000180029da8     libvcruntime:frame.obj
 0002:0000bdc0       _CT??_R0?AVbad_exception@std@@@8??0bad_exception@std@@QEAA@AEBV01@@Z24 0000000180029dc0     libvcruntime:frame.obj
 0002:0000be40       __IMPORT_DESCRIPTOR_KERNEL32 0000000180029e40     kernel32:KERNEL32.dll
 0002:0000be54       __IMPORT_DESCRIPTOR_node   0000000180029e54     iojs:node.dll
 0002:0000be68       __NULL_IMPORT_DESCRIPTOR   0000000180029e68     kernel32:KERNEL32.dll
 0003:00000000       __scrt_native_dllmain_reason 000000018002c000     LIBCMT:utility.obj
 0003:00000008       __security_cookie          000000018002c008     LIBCMT:gs_cookie.obj
 0003:00000010       __security_cookie_complement 000000018002c010     LIBCMT:gs_cookie.obj
 0003:00000018       __isa_available            000000018002c018     LIBCMT:_cpu_disp_.obj
 0003:0000001c       __isa_enabled              000000018002c01c     LIBCMT:_cpu_disp_.obj
 0003:00000020       __memcpy_nt_iters          000000018002c020     LIBCMT:_cpu_disp_.obj
 0003:00000048       __abort_behavior           000000018002c048     libucrt:abort.obj
 0003:00000050       _iob                       000000018002c050     libucrt:_file.obj
 0003:00000160       __acrt_initial_locale_data 000000018002c160     libucrt:nlsdata.obj
 0003:000002b8       __acrt_initial_locale_pointers 000000018002c2b8     libucrt:nlsdata.obj
 0003:000002c8       __acrt_wide_c_locale_string 000000018002c2c8     libucrt:nlsdata.obj
 0003:000002d0       __badioinfo                000000018002c2d0     libucrt:ioinit.obj
 0003:00000310       __acrt_initial_multibyte_data 000000018002c310     libucrt:mbctype.obj
 0003:00000538       __acrt_current_multibyte_data 000000018002c538     libucrt:mbctype.obj
 0003:00000640       _mbctype                   000000018002c640     libucrt:mbctype.obj
 0003:00000750       _mbcasemap                 000000018002c750     libucrt:mbctype.obj
 0003:00000850       _pwctype                   000000018002c850     libucrt:ctype.obj
 0003:00000858       __globallocalestatus       000000018002c858     libucrt:glstatus.obj
 0003:00000860       __acrt_lconv_c             000000018002c860     libucrt:localeconv.obj
 0003:000008f8       __acrt_lconv_static_decimal 000000018002c8f8     libucrt:localeconv.obj
 0003:000008fc       __acrt_lconv_static_W_decimal 000000018002c8fc     libucrt:localeconv.obj
 0003:00000900       __dcrt_lowio_console_output_handle 000000018002c900     libucrt:initcon.obj
 0003:00000920       _fltused                   000000018002c920     LIBCMT:fltused.obj
 0003:00000a10       insecure_memzero_ptr       000000018002ca10     scrypt_lib:insecure_memzero.obj
 0003:00000a18       ??_R0?AVbad_alloc@std@@@8  000000018002ca18     libcpmt:xthrow.obj
 0003:00000a40       ??_R0?AVexception@std@@@8  000000018002ca40     libcpmt:xthrow.obj
 0003:00000a68       ??_R0?AVlogic_error@std@@@8 000000018002ca68     libcpmt:xthrow.obj
 0003:00000a90       ??_R0?AVlength_error@std@@@8 000000018002ca90     libcpmt:xthrow.obj
 0003:00000ab8       ??_R0?AVout_of_range@std@@@8 000000018002cab8     libcpmt:xthrow.obj
 0003:00000ae0       ??_R0?AVtype_info@@@8      000000018002cae0     LIBCMT:std_type_info_static.obj
 0003:00000b00       ??_R0?AVbad_array_new_length@std@@@8 000000018002cb00     LIBCMT:throw_bad_alloc.obj
 0003:00000b30       ??_R0?AVbad_exception@std@@@8 000000018002cb30     libvcruntime:frame.obj
 0003:00000b68       __scrt_current_native_startup_state 000000018002cb68     LIBCMT:utility.obj
 0003:00000b70       __scrt_native_startup_lock 000000018002cb70     LIBCMT:utility.obj
 0003:00001120       ?__type_info_root_node@@3U__type_info_node@@A 000000018002d120     LIBCMT:tncleanup.obj
 0003:00001130       ?_OptionsStorage@?1??__local_stdio_scanf_options@@9@4_KA 000000018002d130     LIBCMT:default_local_stdio_options.obj
 0003:00001138       __scrt_debugger_hook_flag  000000018002d138     LIBCMT:utility_desktop.obj
 0003:0000113c       __favor                    000000018002d13c     LIBCMT:_cpu_disp_.obj
 0003:00001140       ?g_OutOfMemoryExceptionCallback@@3P6APEAXXZEA 000000018002d140     libvcruntime:frame.obj
 0003:000011c8       __pPurecall                000000018002d1c8     libvcruntime:purevirt_data.obj
 0003:00001268       ?pArgList@UnDecorator@@0PEAVReplicator@@EA 000000018002d268     libvcruntime:undname.obj
 0003:00001270       ?pZNameList@UnDecorator@@0PEAVReplicator@@EA 000000018002d270     libvcruntime:undname.obj
 0003:00001278       ?pTemplateArgList@UnDecorator@@0PEAVReplicator@@EA 000000018002d278     libvcruntime:undname.obj
 0003:00001280       ?gName@UnDecorator@@0PEBDEB 000000018002d280     libvcruntime:undname.obj
 0003:00001288       ?name@UnDecorator@@0PEBDEB 000000018002d288     libvcruntime:undname.obj
 0003:00001290       ?outputString@UnDecorator@@0PEADEA 000000018002d290     libvcruntime:undname.obj
 0003:00001298       ?maxStringLength@UnDecorator@@0HA 000000018002d298     libvcruntime:undname.obj
 0003:0000129c       ?disableFlags@UnDecorator@@0KA 000000018002d29c     libvcruntime:undname.obj
 0003:000012a0       ?fExplicitTemplateParams@UnDecorator@@0_NA 000000018002d2a0     libvcruntime:undname.obj
 0003:000012a1       ?fGetTemplateArgumentList@UnDecorator@@0_NA 000000018002d2a1     libvcruntime:undname.obj
 0003:000012a8       ?m_pGetParameter@UnDecorator@@0P6APEADJ@ZEA 000000018002d2a8     libvcruntime:undname.obj
 0003:000012e0       _nstream                   000000018002d2e0     libucrt:_file.obj
 0003:000012e8       __piob                     000000018002d2e8     libucrt:_file.obj
 0003:000012f0       _cflush                    000000018002d2f0     libucrt:_file.obj
 0003:00001428       _environ_table             000000018002d428     libucrt:environment_initialization.obj
 0003:00001430       _wenviron_table            000000018002d430     libucrt:environment_initialization.obj
 0003:00001438       __dcrt_initial_wide_environment 000000018002d438     libucrt:environment_initialization.obj
 0003:00001440       __dcrt_initial_narrow_environment 000000018002d440     libucrt:environment_initialization.obj
 0003:00001448       __acrt_atexit_table        000000018002d448     libucrt:onexit.obj
 0003:00001460       __acrt_at_quick_exit_table 000000018002d460     libucrt:onexit.obj
 0003:000014a0       __acrt_locale_changed_data 000000018002d4a0     libucrt:wsetlocale.obj
 0003:000014a8       __acrt_current_locale_data 000000018002d4a8     libucrt:nlsdata.obj
 0003:00001660       __pioinfo                  000000018002d660     libucrt:ioinit.obj
 0003:00001a60       _nhandle                   000000018002da60     libucrt:ioinit.obj
 0003:00001a70       __acrt_stdout_buffer       000000018002da70     libucrt:_sftbuf.obj
 0003:00001a78       __acrt_stderr_buffer       000000018002da78     libucrt:_sftbuf.obj
 0003:00001c8c       __mbcodepage               000000018002dc8c     libucrt:mbctype.obj
 0003:00001c90       __ismbcodepage             000000018002dc90     libucrt:mbctype.obj
 0003:00001c98       __mbulinfo                 000000018002dc98     libucrt:mbctype.obj
 0003:00001ca8       __mblocalename             000000018002dca8     libucrt:mbctype.obj
 0003:00001cb4       __argc                     000000018002dcb4     libucrt:argv_data.obj
 0003:00001cb8       __argv                     000000018002dcb8     libucrt:argv_data.obj
 0003:00001cc0       __wargv                    000000018002dcc0     libucrt:argv_data.obj
 0003:00001cc8       _acmdln                    000000018002dcc8     libucrt:argv_data.obj
 0003:00001cd0       _wcmdln                    000000018002dcd0     libucrt:argv_data.obj
 0003:00001cd8       _pgmptr                    000000018002dcd8     libucrt:argv_data.obj
 0003:00001ce0       __acrt_heap                000000018002dce0     libucrt:heap_handle.obj
 0003:00001cf4       __acrt_lconv_static_null   000000018002dcf4     libucrt:localeconv.obj
 0003:00001cf8       __acrt_lconv_static_W_null 000000018002dcf8     libucrt:localeconv.obj
 0003:00001cfc       __fma3_is_available        000000018002dcfc     libucrt:fma3_available.obj
 0003:00001d00       __use_fma3_lib             000000018002dd00     libucrt:fma3_available.obj
 0003:00001d18       __scrt_ucrt_dll_is_in_use  000000018002dd18     <common>
 0003:00001d20       __dyn_tls_init_callback    000000018002dd20     <common>
 0003:00001d28       ?_OptionsStorage@?1??__local_stdio_printf_options@@9@9 000000018002dd28     <common>

 entry point at        0001:000081fc

 Static symbols

 0000:fffcd000       .debug$S                   0000000180000000     iojs:node.dll
 0000:fffcd000       .debug$S                   0000000180000000     iojs:node.dll
 0000:fffcd000       .debug$S                   0000000180000000     iojs:node.dll
 0000:fffcd000       .debug$S                   0000000180000000     iojs:node.dll
 0000:fffcd000       .debug$S                   0000000180000000     iojs:node.dll
 0000:fffcd000       .debug$S                   0000000180000000     iojs:node.dll
 0000:fffcd000       .debug$S                   0000000180000000     iojs:node.dll
 0000:fffcd000       .debug$S                   0000000180000000     kernel32:KERNEL32.dll
 0000:fffcd000       .debug$S                   0000000180000000     kernel32:KERNEL32.dll
 0000:fffcd000       .debug$S                   0000000180000000     kernel32:KERNEL32.dll
 0000:fffcd000       .debug$S                   0000000180000000     kernel32:KERNEL32.dll
 0000:fffcd000       .debug$S                   0000000180000000     kernel32:KERNEL32.dll
 0000:fffcd000       .debug$S                   0000000180000000     kernel32:KERNEL32.dll
 0000:fffcd000       .debug$S                   0000000180000000     kernel32:KERNEL32.dll
 0000:fffcd000       .debug$S                   0000000180000000     kernel32:KERNEL32.dll
 0000:fffcd000       .debug$S                   0000000180000000     iojs:node.dll
 0000:fffcd000       .debug$S                   0000000180000000     kernel32:KERNEL32.dll
 0000:fffcd000       .debug$S                   0000000180000000     kernel32:KERNEL32.dll
 0000:fffcd000       .debug$S                   0000000180000000     kernel32:KERNEL32.dll
 0000:fffcd000       .debug$S                   0000000180000000     kernel32:KERNEL32.dll
 0000:fffcd000       .debug$S                   0000000180000000     iojs:node.dll
 0000:fffcd000       .debug$S                   0000000180000000     kernel32:KERNEL32.dll
 0000:fffcd000       .debug$S                   0000000180000000     kernel32:KERNEL32.dll
 0000:fffcd000       .debug$S                   0000000180000000     kernel32:KERNEL32.dll
 0000:fffcd000       .debug$S                   0000000180000000     iojs:node.dll
 0000:fffcd000       .debug$S                   0000000180000000     iojs:node.dll
 0000:fffcd000       .debug$S                   0000000180000000     kernel32:KERNEL32.dll
 0000:fffcd000       .debug$S                   0000000180000000     kernel32:KERNEL32.dll
 0000:fffcd000       .debug$S                   0000000180000000     iojs:node.dll
 0000:fffcd000       .debug$S                   0000000180000000     iojs:node.dll
 0000:fffcd000       .debug$S                   0000000180000000     iojs:node.dll
 0000:fffcd000       .debug$S                   0000000180000000     kernel32:KERNEL32.dll
 0000:fffcd000       .debug$S                   0000000180000000     iojs:node.dll
 0000:fffcd000       .debug$S                   0000000180000000     iojs:node.dll
 0000:fffcd000       .debug$S                   0000000180000000     iojs:node.dll
 0000:fffcd000       .debug$S                   0000000180000000     iojs:node.dll
 0000:fffcd000       .debug$S                   0000000180000000     iojs:node.dll
 0000:fffcd000       .debug$S                   0000000180000000     iojs:node.dll
 0000:fffcd000       .debug$S                   0000000180000000     kernel32:KERNEL32.dll
 0000:fffcd000       .debug$S                   0000000180000000     kernel32:KERNEL32.dll
 0000:fffcd000       .debug$S                   0000000180000000     kernel32:KERNEL32.dll
 0000:fffcd000       .debug$S                   0000000180000000     iojs:node.dll
 0000:fffcd000       .debug$S                   0000000180000000     kernel32:KERNEL32.dll
 0000:fffcd000       .debug$S                   0000000180000000     iojs:node.dll
 0000:fffcd000       .debug$S                   0000000180000000     iojs:node.dll
 0000:fffcd000       .debug$S                   0000000180000000     iojs:node.dll
 0000:fffcd000       .debug$S                   0000000180000000     kernel32:KERNEL32.dll
 0000:fffcd000       .debug$S                   0000000180000000     iojs:node.dll
 0000:fffcd000       .debug$S                   0000000180000000     kernel32:KERNEL32.dll
 0000:fffcd000       .debug$S                   0000000180000000     iojs:node.dll
 0000:fffcd000       .debug$S                   0000000180000000     iojs:node.dll
 0000:fffcd000       .debug$S                   0000000180000000     iojs:node.dll
 0000:fffcd000       .debug$S                   0000000180000000     iojs:node.dll
 0000:fffcd000       .debug$S                   0000000180000000     iojs:node.dll
 0000:fffcd000       .debug$S                   0000000180000000     kernel32:KERNEL32.dll
 0000:fffcd000       .debug$S                   0000000180000000     iojs:node.dll
 0000:fffcd000       .debug$S                   0000000180000000     iojs:node.dll
 0000:fffcd000       .debug$S                   0000000180000000     iojs:node.dll
 0000:fffcd000       .debug$S                   0000000180000000     iojs:node.dll
 0000:fffcd000       .debug$S                   0000000180000000     iojs:node.dll
 0000:fffcd000       .debug$S                   0000000180000000     iojs:node.dll
 0000:fffcd000       .debug$S                   0000000180000000     kernel32:KERNEL32.dll
 0000:fffcd000       .debug$S                   0000000180000000     kernel32:KERNEL32.dll
 0000:fffcd000       .debug$S                   0000000180000000     kernel32:KERNEL32.dll
 0000:fffcd000       .debug$S                   0000000180000000     kernel32:KERNEL32.dll
 0000:fffcd000       .debug$S                   0000000180000000     kernel32:KERNEL32.dll
 0000:fffcd000       .debug$S                   0000000180000000     kernel32:KERNEL32.dll
 0000:fffcd000       .debug$S                   0000000180000000     kernel32:KERNEL32.dll
 0000:fffcd000       .debug$S                   0000000180000000     kernel32:KERNEL32.dll
 0000:fffcd000       .debug$S                   0000000180000000     kernel32:KERNEL32.dll
 0000:fffcd000       .debug$S                   0000000180000000     kernel32:KERNEL32.dll
 0000:fffcd000       .debug$S                   0000000180000000     kernel32:KERNEL32.dll
 0000:fffcd000       .debug$S                   0000000180000000     iojs:node.dll
 0000:fffcd000       .debug$S                   0000000180000000     kernel32:KERNEL32.dll
 0000:fffcd000       .debug$S                   0000000180000000     kernel32:KERNEL32.dll
 0000:fffcd000       .debug$S                   0000000180000000     kernel32:KERNEL32.dll
 0000:fffcd000       .debug$S                   0000000180000000     kernel32:KERNEL32.dll
 0000:fffcd000       .debug$S                   0000000180000000     iojs:node.dll
 0000:fffcd000       .debug$S                   0000000180000000     iojs:node.dll
 0000:fffcd000       .debug$S                   0000000180000000     kernel32:KERNEL32.dll
 0000:fffcd000       .debug$S                   0000000180000000     kernel32:KERNEL32.dll
 0000:fffcd000       .debug$S                   0000000180000000     kernel32:KERNEL32.dll
 0000:fffcd000       .debug$S                   0000000180000000     kernel32:KERNEL32.dll
 0000:fffcd000       .debug$S                   0000000180000000     iojs:node.dll
 0000:fffcd000       .debug$S                   0000000180000000     iojs:node.dll
 0000:fffcd000       .debug$S                   0000000180000000     iojs:node.dll
 0000:fffcd000       .debug$S                   0000000180000000     scrypt.exp
 0000:fffcd000       .debug$S                   0000000180000000     iojs:node.dll
 0000:fffcd000       .debug$S                   0000000180000000     kernel32:KERNEL32.dll
 0000:fffcd000       .debug$S                   0000000180000000     kernel32:KERNEL32.dll
 0000:fffcd000       .debug$S                   0000000180000000     kernel32:KERNEL32.dll
 0000:fffcd000       .debug$S                   0000000180000000     kernel32:KERNEL32.dll
 0000:fffcd000       .debug$S                   0000000180000000     kernel32:KERNEL32.dll
 0000:fffcd000       .debug$S                   0000000180000000     kernel32:KERNEL32.dll
 0000:fffcd000       .debug$S                   0000000180000000     kernel32:KERNEL32.dll
 0000:fffcd000       .debug$S                   0000000180000000     kernel32:KERNEL32.dll
 0000:fffcd000       .debug$S                   0000000180000000     kernel32:KERNEL32.dll
 0000:fffcd000       .debug$S                   0000000180000000     kernel32:KERNEL32.dll
 0000:fffcd000       .debug$S                   0000000180000000     kernel32:KERNEL32.dll
 0000:fffcd000       .debug$S                   0000000180000000     kernel32:KERNEL32.dll
 0000:fffcd000       .debug$S                   0000000180000000     kernel32:KERNEL32.dll
 0000:fffcd000       .debug$S                   0000000180000000     kernel32:KERNEL32.dll
 0000:fffcd000       .debug$S                   0000000180000000     kernel32:KERNEL32.dll
 0000:fffcd000       .debug$S                   0000000180000000     kernel32:KERNEL32.dll
 0000:fffcd000       .debug$S                   0000000180000000     kernel32:KERNEL32.dll
 0000:fffcd000       .debug$S                   0000000180000000     kernel32:KERNEL32.dll
 0000:fffcd000       .debug$S                   0000000180000000     kernel32:KERNEL32.dll
 0000:fffcd000       .debug$S                   0000000180000000     kernel32:KERNEL32.dll
 0000:fffcd000       .debug$S                   0000000180000000     kernel32:KERNEL32.dll
 0000:fffcd000       .debug$S                   0000000180000000     kernel32:KERNEL32.dll
 0000:fffcd000       .debug$S                   0000000180000000     kernel32:KERNEL32.dll
 0000:fffcd000       .debug$S                   0000000180000000     kernel32:KERNEL32.dll
 0000:fffcd000       .debug$S                   0000000180000000     iojs:node.dll
 0000:fffcd000       .debug$S                   0000000180000000     kernel32:KERNEL32.dll
 0000:fffcd000       .debug$S                   0000000180000000     kernel32:KERNEL32.dll
 0000:fffcd000       .debug$S                   0000000180000000     kernel32:KERNEL32.dll
 0000:fffcd000       .debug$S                   0000000180000000     kernel32:KERNEL32.dll
 0000:fffcd000       .debug$S                   0000000180000000     kernel32:KERNEL32.dll
 0000:fffcd000       .debug$S                   0000000180000000     kernel32:KERNEL32.dll
 0000:fffcd000       .debug$S                   0000000180000000     kernel32:KERNEL32.dll
 0000:fffcd000       .debug$S                   0000000180000000     kernel32:KERNEL32.dll
 0000:fffcd000       .debug$S                   0000000180000000     kernel32:KERNEL32.dll
 0000:fffcd000       .debug$S                   0000000180000000     kernel32:KERNEL32.dll
 0000:fffcd000       .debug$S                   0000000180000000     kernel32:KERNEL32.dll
 0000:fffcd000       .debug$S                   0000000180000000     kernel32:KERNEL32.dll
 0000:fffcd000       .debug$S                   0000000180000000     kernel32:KERNEL32.dll
 0000:fffcd000       .debug$S                   0000000180000000     kernel32:KERNEL32.dll
 0000:fffcd000       .debug$S                   0000000180000000     kernel32:KERNEL32.dll
 0000:fffcd000       .debug$S                   0000000180000000     kernel32:KERNEL32.dll
 0000:fffcd000       .debug$S                   0000000180000000     iojs:node.dll
 0000:fffcd000       .debug$S                   0000000180000000     iojs:node.dll
 0000:fffcd000       .debug$S                   0000000180000000     kernel32:KERNEL32.dll
 0000:fffcd000       .debug$S                   0000000180000000     kernel32:KERNEL32.dll
 0000:fffcd000       .debug$S                   0000000180000000     kernel32:KERNEL32.dll
 0000:fffcd000       .debug$S                   0000000180000000     iojs:node.dll
 0000:fffcd000       .debug$S                   0000000180000000     kernel32:KERNEL32.dll
 0000:fffcd000       .debug$S                   0000000180000000     kernel32:KERNEL32.dll
 0000:fffcd000       .debug$S                   0000000180000000     kernel32:KERNEL32.dll
 0001:000000b0       ?InternalErrorDescr@?A0x3a241abb@@YAPEBDI@Z 00000001800010b0 f   scrypt_common.obj
 0001:00000148       $LN20                      0000000180001148     scrypt_common.obj
 0001:00000180       ?ScryptErrorDescr@?A0x3a241abb@@YAPEBDI@Z 0000000180001180 f   scrypt_common.obj
 0001:00003520       ?FunctionCallbackWrapper@imp@Nan@@YAXAEBV?$FunctionCallbackInfo@VValue@v8@@@v8@@@Z 0000000180004520 f   scrypt_node.obj
 0001:00003d00       _register_scrypt           0000000180004d00 f   scrypt_node.obj
 0001:000047b0       SHA256_Transform           00000001800057b0 f   scrypt_lib:sha256.obj
 0001:00006150       SHA256_Pad                 0000000180007150 f   scrypt_lib:sha256.obj
 0001:00006c90       _crypto_scrypt             0000000180007c90 f   scrypt_lib:crypto_scrypt.obj
 0001:00006ed0       testsmix                   0000000180007ed0 f   scrypt_lib:crypto_scrypt.obj
 0001:000070a0       insecure_memzero_func      00000001800080a0 f   scrypt_lib:insecure_memzero.obj
 0001:000071f0       salsa20_8                  00000001800081f0 f   scrypt_lib:crypto_scrypt_smix.obj
 0001:00007510       blockmix_salsa8            0000000180008510 f   scrypt_lib:crypto_scrypt_smix.obj
 0001:00007e30       $$000000                   0000000180008e30     LIBCMT:_amdsecgs_.obj
 0001:00007eb0       ?dllmain_crt_dispatch@@YAHQEAUHINSTANCE__@@KQEAX@Z 0000000180008eb0 f   LIBCMT:dll_dllmain.obj
 0001:00007f00       ?dllmain_crt_process_attach@@YAHQEAUHINSTANCE__@@QEAX@Z 0000000180008f00 f   LIBCMT:dll_dllmain.obj
 0001:0000802c       ?dllmain_crt_process_detach@@YAH_N@Z 000000018000902c f   LIBCMT:dll_dllmain.obj
 0001:000080b0       ?dllmain_dispatch@@YAHQEAUHINSTANCE__@@KQEAX@Z 00000001800090b0 f   LIBCMT:dll_dllmain.obj
 0001:000081a8       ?dllmain_raw@@YAHQEAUHINSTANCE__@@KQEAX@Z 00000001800091a8 f   LIBCMT:dll_dllmain.obj
 0001:000087fc       capture_current_context    00000001800097fc f   LIBCMT:gs_report.obj
 0001:0000886c       capture_previous_context   000000018000986c f   LIBCMT:gs_report.obj
 0001:00008e30       $$000000                   0000000180009e30     libvcruntime:memcpy.obj
 0001:00008ed7       MoveSmall                  0000000180009ed7     libvcruntime:memcpy.obj
 0001:00009360       ?CatchIt@@YAXPEAUEHExceptionRecord@@PEA_KPEAU_CONTEXT@@PEAU_xDISPATCHER_CONTEXT@@PEBU_s_FuncInfo@@PEBU_s_HandlerType@@PEBU_s_CatchableType@@PEBU_s_TryBlockMapEntry@@H1EE@Z 000000018000a360 f   libvcruntime:frame.obj
 0001:00009424       ?ExFilterRethrow@@YAHPEAU_EXCEPTION_POINTERS@@PEAUEHExceptionRecord@@PEAH@Z 000000018000a424 f   libvcruntime:frame.obj
 0001:000094ac       ?FindHandler@@YAXPEAUEHExceptionRecord@@PEA_KPEAU_CONTEXT@@PEAU_xDISPATCHER_CONTEXT@@PEBU_s_FuncInfo@@EH1@Z 000000018000a4ac f   libvcruntime:frame.obj
 0001:0000997c       ?FindHandlerForForeignException@@YAXPEAUEHExceptionRecord@@PEA_KPEAU_CONTEXT@@PEAU_xDISPATCHER_CONTEXT@@PEBU_s_FuncInfo@@HH1@Z 000000018000a97c f   libvcruntime:frame.obj
 0001:00009be8       ?IsInExceptionSpec@@YAEPEAUEHExceptionRecord@@PEBU_s_ESTypeList@@@Z 000000018000abe8 f   libvcruntime:frame.obj
 0001:0000abc0       $$000000                   000000018000bbc0     libvcruntime:memset.obj
 0001:0000acac       MsetTab                    000000018000bcac     libvcruntime:memset.obj
 0001:0000b030       $$000000                   000000018000c030     libvcruntime:handlers.obj
 0001:0000b730       $$000000                   000000018000c730     libvcruntime:_jmpuwind_.obj
 0001:0000b848       ?try_get_function@@YAPEAXW4function_id@?A0x679b24ab@@QEBDQEBW4module_id@2@2@Z 000000018000c848 f   libvcruntime:winapi_downlevel.obj
 0001:0000bfc0       ??$common_assert_to_message_box@_W@@YAXQEB_W0IQEAX@Z 000000018000cfc0 f   libucrt:assert.obj
 0001:0000c084       ??$common_assert_to_message_box_build_string@_W@@YAXQEA_W_KQEB_W2IQEAX@Z 000000018000d084 f   libucrt:assert.obj
 0001:0000c858       ??$common_assert_to_stderr@_W@@YAXQEB_W0I@Z 000000018000d858 f   libucrt:assert.obj
 0001:0000c9c8       ?get_assert_format@@YAPEB_W_W@Z 000000018000d9c8 f   libucrt:assert.obj
 0001:0000d3bc       ??R<lambda_0a64b6a4deda75c01876f29c44fc5eb3>@@QEBAHXZ 000000018000e3bc f   libucrt:output.obj
 0001:0000d4ac       ??R<lambda_dd75445284c072d0bd3768540cc698fa>@@QEBAHXZ 000000018000e4ac f   libucrt:output.obj
 0001:000102b8       ?atexit_exception_filter@@YAHK@Z 00000001800112b8 f   libucrt:exit.obj
 0001:000102c4       ?common_exit@@YAXHW4_crt_exit_cleanup_mode@@W4_crt_exit_return_mode@@@Z 00000001800112c4 f   libucrt:exit.obj
 0001:00010430       ?exit_or_terminate_process@@YAXI@Z 0000000180011430 f   libucrt:exit.obj
 0001:0001047c       ?try_cor_exit_process@@YAXI@Z 000000018001147c f   libucrt:exit.obj
 0001:00010514       ??$parse_command_line@D@@YAXPEADPEAPEAD0PEA_K2@Z 0000000180011514 f   libucrt:argv_parsing.obj
 0001:000108ac       ??$common_initialize_environment_nolock@D@@YAHXZ 00000001800118ac f   libucrt:environment_initialization.obj
 0001:00010918       ??$create_environment@D@@YAQEAPEADQEAD@Z 0000000180011918 f   libucrt:environment_initialization.obj
 0001:00010a14       ??$free_environment@_W@@YAXQEAPEA_W@Z 0000000180011a14 f   libucrt:environment_initialization.obj
 0001:00010a14       ??$free_environment@D@@YAXQEAPEAD@Z 0000000180011a14 f   libucrt:environment_initialization.obj
 0001:00010a58       ??$uninitialize_environment_internal@D@@YAXAEAPEAPEAD@Z 0000000180011a58 f   libucrt:environment_initialization.obj
 0001:00010a74       ??$uninitialize_environment_internal@_W@@YAXAEAPEAPEA_W@Z 0000000180011a74 f   libucrt:environment_initialization.obj
 0001:00010cac       ??R<lambda_4e60a939b0d047cfe11ddc22648dfba9>@@QEBAHXZ 0000000180011cac f   libucrt:onexit.obj
 0001:00010f5c       initialize_global_variables 0000000180011f5c f   libucrt:initialization.obj
 0001:00010f70       initialize_c               0000000180011f70 f   libucrt:initialization.obj
 0001:00010f94       initialize_global_state_isolation 0000000180011f94 f   libucrt:initialization.obj
 0001:00010f94       report_memory_leaks        0000000180011f94 f   libucrt:initialization.obj
 0001:00010f94       uninitialize_c             0000000180011f94 f   libucrt:initialization.obj
 0001:00010f94       initialize_environment     0000000180011f94 f   libucrt:initialization.obj
 0001:00010f94       uninitialize_global_state_isolation 0000000180011f94 f   libucrt:initialization.obj
 0001:00010f98       uninitialize_environment   0000000180011f98 f   libucrt:initialization.obj
 0001:00010fa8       initialize_pointers        0000000180011fa8 f   libucrt:initialization.obj
 0001:00010ffc       uninitialize_vcruntime     0000000180011ffc f   libucrt:initialization.obj
 0001:00011004       uninitialize_allocated_memory 0000000180012004 f   libucrt:initialization.obj
 0001:00011eb0       ?construct_ptd_array@@YAXQEAU__acrt_ptd@@@Z 0000000180012eb0 f   libucrt:per_thread_data.obj
 0001:00011f80       ?destroy_fls@@YAXPEAX@Z    0000000180012f80 f   libucrt:per_thread_data.obj
 0001:00011fa0       ?destroy_ptd_array@@YAXQEAU__acrt_ptd@@@Z 0000000180012fa0 f   libucrt:per_thread_data.obj
 0001:00012098       ?replace_current_thread_locale_nolock@@YAXQEAU__acrt_ptd@@QEAU__crt_locale_data@@@Z 0000000180013098 f   libucrt:per_thread_data.obj
 0001:000122e0       ??$common_xtox@K_W@@YAHKQEA_W_KI_N@Z 00000001800132e0 f   libucrt:xtoa.obj
 0001:0001238c       ??$common_xtox_s@K_W@@YAHKQEA_W_KI_N@Z 000000018001338c f   libucrt:xtoa.obj
 0001:00012650       ??$message_box_wait_thread@_W@@YAKQEAX@Z 0000000180013650 f   libucrt:crtmbox.obj
 0001:00012864       common_flush_all           0000000180013864 f   libucrt:fflush.obj
 0001:000129cc       ??R<lambda_b721fa326cdb32351d23dfa67958c160>@@QEBAHXZ 00000001800139cc f   libucrt:setvbuf.obj
 0001:00012e90       ?internal_isupper_l@@YA_NHQEAU__crt_locale_pointers@@@Z 0000000180013e90 f   libucrt:tolower_toupper.obj
 0001:00013108       ?try_get_function@@YAPEAXW4function_id@?A0x63058377@@QEBDQEBW4module_id@2@2@Z 0000000180014108 f   libucrt:winapi_thunks.obj
 0001:00013a28       ?initialize_inherited_file_handles_nolock@@YAXXZ 0000000180014a28 f   libucrt:ioinit.obj
 0001:00013b14       ?initialize_stdio_handles_nolock@@YAXXZ 0000000180014b14 f   libucrt:ioinit.obj
 0001:00014410       ?fp_format_a@@YAHQEBNPEAD_KQEAD2H_NIQEAU__crt_locale_pointers@@@Z 0000000180015410 f   libucrt:cvt.obj
 0001:00014770       ?fp_format_e@@YAHQEBNQEAD_K12H_NIQEAU__crt_locale_pointers@@@Z 0000000180015770 f   libucrt:cvt.obj
 0001:00014840       ?fp_format_e_internal@@YAHQEAD_KH_NIQEAU_strflt@@2QEAU__crt_locale_pointers@@@Z 0000000180015840 f   libucrt:cvt.obj
 0001:00014a1c       ?fp_format_f_internal@@YAHQEAD_KHQEAU_strflt@@_NQEAU__crt_locale_pointers@@@Z 0000000180015a1c f   libucrt:cvt.obj
 0001:00014b64       ?fp_format_g@@YAHQEBNQEAD_K12H_NIQEAU__crt_locale_pointers@@@Z 0000000180015b64 f   libucrt:cvt.obj
 0001:00014c9c       ?fp_format_nan_or_infinity@@YAHW4__acrt_fp_class@@_NPEAD_K1@Z 0000000180015c9c f   libucrt:cvt.obj
 0001:000153bc       ?<helper_func_cdecl>@<lambda_2feae5270eb4d0d5532525f423405775>@@CAHPEBX0@Z 00000001800163bc f   libucrt:argv_wildcards.obj
 0001:000153d0       ??$common_expand_argv_wildcards@D@@YAHQEAPEADQEAPEAPEAD@Z 00000001800163d0 f   libucrt:argv_wildcards.obj
 0001:000155dc       ??$copy_and_add_argument_to_buffer@D@@YAHQEBD0_KAEAV?$argument_list@D@?A0xca0879c4@@@Z 00000001800165dc f   libucrt:argv_wildcards.obj
 0001:000156ec       ??$expand_argument_wildcards@D@@YAHQEAD0AEAV?$argument_list@D@?A0xca0879c4@@@Z 00000001800166ec f   libucrt:argv_wildcards.obj
 0001:000159a0       ??R<lambda_ad1ced32f4ac17aa236e5ef05d6b3b7c>@@QEBAXXZ 00000001800169a0 f   libucrt:mbctype.obj
 0001:00015bb8       ?getSystemCP@@YAHH@Z       0000000180016bb8 f   libucrt:mbctype.obj
 0001:00015c38       ?setSBCS@@YAXPEAU__crt_multibyte_data@@@Z 0000000180016c38 f   libucrt:mbctype.obj
 0001:00015cc8       ?setSBUpLow@@YAXPEAU__crt_multibyte_data@@@Z 0000000180016cc8 f   libucrt:mbctype.obj
 0001:00015eac       ?setmbcp_internal@@YAHH_N@Z 0000000180016eac f   libucrt:mbctype.obj
 0001:000163f4       ?x_ismbbtype_l@@YAHPEAU__crt_locale_pointers@@IHH@Z 00000001800173f4 f   libucrt:ismbbyte.obj
 0001:00016eec       ?write_double_translated_ansi_nolock@@YA?AUwrite_result@?A0x9c548279@@HQEBDI@Z 0000000180017eec f   libucrt:write.obj
 0001:000170f4       ?write_text_ansi_nolock@@YA?AUwrite_result@?A0x9c548279@@HQEBDI@Z 00000001800180f4 f   libucrt:write.obj
 0001:000171fc       ?write_text_utf16le_nolock@@YA?AUwrite_result@?A0x9c548279@@HQEBDI@Z 00000001800181fc f   libucrt:write.obj
 0001:00017318       ?write_text_utf8_nolock@@YA?AUwrite_result@?A0x9c548279@@HQEBDI@Z 0000000180018318 f   libucrt:write.obj
 0001:0001785c       ?__acrt_LCMapStringA_stat@@YAHPEAU__crt_locale_pointers@@PEB_WKPEBDHPEADHHH@Z 000000018001885c f   libucrt:lcmapstringa.obj
 0001:00017dc8       ?free_crt_array_internal@@YAXQEAPEBX_K@Z 0000000180018dc8 f   libucrt:inittime.obj
 0001:000180dc       ?GetTableIndexFromLocaleName@@YAHPEB_W@Z 00000001800190dc f   libucrt:lcidtoname_downlevel.obj
 0001:00019eec       memcpy_s                   000000018001aeec f   libucrt:cfout.obj
 0001:00019f74       ??$write_buffer_nolock@D@@YA_NDV__crt_stdio_stream@@@Z 000000018001af74 f   libucrt:_flsbuf.obj
 0001:0001a078       ??$write_buffer_nolock@_W@@YA_N_WV__crt_stdio_stream@@@Z 000000018001b078 f   libucrt:_flsbuf.obj
 0001:0001a3c0       ?shortsort@@YAXPEAD0_KP6AHPEBX2@Z@Z 000000018001b3c0 f   libucrt:qsort.obj
 0001:0001a904       ?initialize_multibyte@@YAHXZ 000000018001b904 f   libucrt:multibyte_initializer.obj
 0001:0001a9dc       ??$common_lseek@_J@@YA_JH_JH@Z 000000018001b9dc f   libucrt:lseek.obj
 0001:0001aacc       ??$common_lseek_nolock@_J@@YA_JH_JH@Z 000000018001bacc f   libucrt:lseek.obj
 0001:0001af90       $$000000                   000000018001bf90     libucrt:log10.obj
 0001:0001b72c       common_control87           000000018001c72c f   libucrt:ieee.obj
 0001:0001b9c4       _call_matherr              000000018001c9c4 f   libucrt:libm_error.obj
 0001:0001ba2c       _exception_enabled         000000018001ca2c f   libucrt:libm_error.obj
 0001:0001bcc0       _log_special_common        000000018001ccc0 f   libucrt:log_special.obj
 0001:0001bd60       $$000000                   000000018001cd60     libucrt:fpsr.obj
 0001:0001c350       $$000000                   000000018001d350     LIBCMT:_chkstk_.obj
 0001:0001c3c0       $$000000                   000000018001d3c0     libvcruntime:memcmp.obj
 0001:0001c660       $$000000                   000000018001d660     LIBCMT:_guard_dispatch_.obj
 0001:0001c680       ?dtor$0@?0??GetFromPersistent@AsyncWorker@Nan@@QEBA?AV?$Local@VValue@v8@@@v8@@PEBD@Z@4HA 000000018001d680 f   scrypt_kdf_async.obj
 0001:0001c680       ?dtor$0@?0??Call_@Callback@Nan@@AEBA?AV?$Local@VValue@v8@@@v8@@PEAVIsolate@4@V?$Local@VObject@v8@@@4@HQEAV34@@Z@4HA 000000018001d680 f   scrypt_params_async.obj
 0001:0001c680       ?dtor$0@?0??HandleOKCallback@AsyncWorker@Nan@@MEAAXXZ@4HA 000000018001d680 f   scrypt_params_async.obj
 0001:0001c680       ?dtor$0@?0??Error@Nan@@YA?AV?$Local@VValue@v8@@@v8@@PEBD@Z@4HA 000000018001d680 f   scrypt_common.obj
 0001:0001c680       ?dtor$0@?0??HandleOKCallback@ScryptKDFVerifyAsyncWorker@@UEAAXXZ@4HA 000000018001d680 f   scrypt_kdf-verify_async.obj
 0001:0001c680       ?dtor$0@?0??HandleErrorCallback@AsyncWorker@Nan@@MEAAXXZ@4HA 000000018001d680 f   scrypt_params_async.obj
 0001:0001c690       ?dtor$0@?0??ScryptErrorDescr@?A0x3a241abb@@YAPEBDI@Z@4HA 000000018001d690 f   scrypt_common.obj
 0001:0001c69c       ?dtor$1@?0??ScryptErrorDescr@?A0x3a241abb@@YAPEBDI@Z@4HA 000000018001d69c f   scrypt_common.obj
 0001:0001c6a8       ?dtor$2@?0??ScryptErrorDescr@?A0x3a241abb@@YAPEBDI@Z@4HA 000000018001d6a8 f   scrypt_common.obj
 0001:0001c6c0       ?dtor$0@?0??ScryptError@NodeScrypt@@YA?AV?$Local@VValue@v8@@@v8@@I@Z@4HA 000000018001d6c0 f   scrypt_common.obj
 0001:0001c6c0       ?dtor$0@?0??WorkComplete@AsyncWorker@Nan@@UEAAXXZ@4HA 000000018001d6c0 f   scrypt_params_async.obj
 0001:0001c6c0       ?dtor$0@?0??HandleErrorCallback@ScryptAsyncWorker@@UEAAXXZ@4HA 000000018001d6c0 f   scrypt_params_async.obj
 0001:0001c6d0       ?dtor$0@?0??NewInstance@Nan@@YA?AV?$MaybeLocal@VObject@v8@@@v8@@V?$Local@VObjectTemplate@v8@@@3@@Z@4HA 000000018001d6d0 f   scrypt_node.obj
 0001:0001c6d0       ?dtor$0@?0??convert@?$ToFactory@VInteger@v8@@@imp@Nan@@SA?AV?$MaybeLocal@VInteger@v8@@@v8@@V?$Local@VValue@v8@@@5@@Z@4HA 000000018001d6d0 f   scrypt_params_async.obj
 0001:0001c6d0       ?dtor$0@?0??GetFunction@Nan@@YA?AV?$MaybeLocal@VFunction@v8@@@v8@@V?$Local@VFunctionTemplate@v8@@@3@@Z@4HA 000000018001d6d0 f   scrypt_node.obj
 0001:0001c6e0       ?dtor$0@?0??Call@Callback@Nan@@QEBA?AV?$Local@VValue@v8@@@v8@@HQEAV34@@Z@4HA 000000018001d6e0 f   scrypt_params_async.obj
 0001:0001c6f0       ?dtor$0@?0??Call@Callback@Nan@@QEBA?AV?$MaybeLocal@VValue@v8@@@v8@@HQEAV?$Local@VValue@v8@@@4@PEAVAsyncResource@2@@Z@4HA 000000018001d6f0 f   scrypt_params_async.obj
 0001:0001c700       ?dtor$0@?0???0AsyncWorker@Nan@@QEAA@PEAVCallback@1@PEBD@Z@4HA 000000018001d700 f   scrypt_params_async.obj
 0001:0001c713       ?dtor$1@?0???0AsyncWorker@Nan@@QEAA@PEAVCallback@1@PEBD@Z@4HA 000000018001d713 f   scrypt_params_async.obj
 0001:0001c720       ?dtor$0@?0??WorkComplete@ScryptAsyncWorker@@UEAAXXZ@4HA 000000018001d720 f   scrypt_params_async.obj
 0001:0001c72c       ?dtor$2@?0??WorkComplete@ScryptAsyncWorker@@UEAAXXZ@4HA 000000018001d72c f   scrypt_params_async.obj
 0001:0001c740       ?dtor$0@?0???0ScryptParamsAsyncWorker@@QEAA@AEBV?$FunctionCallbackInfo@VValue@v8@@@Nan@@@Z@4HA 000000018001d740 f   scrypt_params_async.obj
 0001:0001c75d       ?dtor$1@?0???0ScryptParamsAsyncWorker@@QEAA@AEBV?$FunctionCallbackInfo@VValue@v8@@@Nan@@@Z@4HA 000000018001d75d f   scrypt_params_async.obj
 0001:0001c770       ?dtor$0@?0??HandleOKCallback@ScryptParamsAsyncWorker@@UEAAXXZ@4HA 000000018001d770 f   scrypt_params_async.obj
 0001:0001c770       ?dtor$0@?0??HandleOKCallback@ScryptHashAsyncWorker@@UEAAXXZ@4HA 000000018001d770 f   scrypt_hash_async.obj
 0001:0001c770       ?dtor$0@?0??HandleOKCallback@ScryptKDFAsyncWorker@@UEAAXXZ@4HA 000000018001d770 f   scrypt_kdf_async.obj
 0001:0001c780       ?dtor$0@?0??kdf@@YAXAEBV?$FunctionCallbackInfo@VValue@v8@@@Nan@@@Z@4HA 000000018001d780 f   scrypt_kdf_async.obj
 0001:0001c780       ?dtor$0@?0??params@@YAXAEBV?$FunctionCallbackInfo@VValue@v8@@@Nan@@@Z@4HA 000000018001d780 f   scrypt_params_async.obj
 0001:0001c7a0       ?dtor$0@?0???0ScryptKDFVerifyAsyncWorker@@QEAA@AEBV?$FunctionCallbackInfo@VValue@v8@@@Nan@@@Z@4HA 000000018001d7a0 f   scrypt_kdf-verify_async.obj
 0001:0001c7a0       ?dtor$0@?0???0ScryptKDFAsyncWorker@@QEAA@AEBV?$FunctionCallbackInfo@VValue@v8@@@Nan@@@Z@4HA 000000018001d7a0 f   scrypt_kdf_async.obj
 0001:0001c7a0       ?dtor$0@?0???0ScryptHashAsyncWorker@@QEAA@AEBV?$FunctionCallbackInfo@VValue@v8@@@Nan@@@Z@4HA 000000018001d7a0 f   scrypt_hash_async.obj
 0001:0001c7c0       ?dtor$1@?0???0ScryptHashAsyncWorker@@QEAA@AEBV?$FunctionCallbackInfo@VValue@v8@@@Nan@@@Z@4HA 000000018001d7c0 f   scrypt_hash_async.obj
 0001:0001c7c0       ?dtor$1@?0???0ScryptKDFVerifyAsyncWorker@@QEAA@AEBV?$FunctionCallbackInfo@VValue@v8@@@Nan@@@Z@4HA 000000018001d7c0 f   scrypt_kdf-verify_async.obj
 0001:0001c7c0       ?dtor$1@?0???0ScryptKDFAsyncWorker@@QEAA@AEBV?$FunctionCallbackInfo@VValue@v8@@@Nan@@@Z@4HA 000000018001d7c0 f   scrypt_kdf_async.obj
 0001:0001c7cc       ?dtor$5@?0???0ScryptHashAsyncWorker@@QEAA@AEBV?$FunctionCallbackInfo@VValue@v8@@@Nan@@@Z@4HA 000000018001d7cc f   scrypt_hash_async.obj
 0001:0001c7cc       ?dtor$5@?0???0ScryptKDFVerifyAsyncWorker@@QEAA@AEBV?$FunctionCallbackInfo@VValue@v8@@@Nan@@@Z@4HA 000000018001d7cc f   scrypt_kdf-verify_async.obj
 0001:0001c7cc       ?dtor$5@?0???0ScryptKDFAsyncWorker@@QEAA@AEBV?$FunctionCallbackInfo@VValue@v8@@@Nan@@@Z@4HA 000000018001d7cc f   scrypt_kdf_async.obj
 0001:0001c7e0       ?dtor$0@?0??kdfVerify@@YAXAEBV?$FunctionCallbackInfo@VValue@v8@@@Nan@@@Z@4HA 000000018001d7e0 f   scrypt_kdf-verify_async.obj
 0001:0001c800       ?dtor$0@?0??hash@@YAXAEBV?$FunctionCallbackInfo@VValue@v8@@@Nan@@@Z@4HA 000000018001d800 f   scrypt_hash_async.obj
 0001:0001c820       ?dtor$0@?0??Set@Nan@@YA?AV?$Maybe@_N@v8@@V?$Local@VObject@v8@@@3@V?$Local@VValue@v8@@@3@1@Z@4HA 000000018001d820 f   scrypt_node.obj
 0001:0001c830       ?dtor$0@?0??New@?$Factory@VFunctionTemplate@v8@@@imp@Nan@@SA?AV?$Local@VFunctionTemplate@v8@@@v8@@P6AXAEBV?$FunctionCallbackInfo@VValue@v8@@@3@@ZV?$Local@VValue@v8@@@5@V?$Local@VSignature@v8@@@5@@Z@4HA 000000018001d830 f   scrypt_node.obj
 0001:0001c83e       ?fin$0@?0??dllmain_crt_process_attach@@YAHQEAUHINSTANCE__@@QEAX@Z@4HA 000000018001d83e f   LIBCMT:dll_dllmain.obj
 0001:0001c855       ?fin$0@?0??dllmain_crt_process_detach@@YAH_N@Z@4HA 000000018001d855 f   LIBCMT:dll_dllmain.obj
 0001:0001c871       ?filt$0@?0??dllmain_dispatch@@YAHQEAUHINSTANCE__@@KQEAX@Z@4HA 000000018001d871 f   LIBCMT:dll_dllmain.obj
 0001:0001c8a7       __scrt_is_nonwritable_in_current_image$filt$0 000000018001d8a7 f   LIBCMT:utility.obj
 0001:0001c8bf       __CxxCallCatchBlock$filt$0 000000018001d8bf f   libvcruntime:frame.obj
 0001:0001c8e4       __CxxCallCatchBlock$fin$1  000000018001d8e4 f   libvcruntime:frame.obj
 0001:0001c95c       __DestructExceptionObject$filt$0 000000018001d95c f   libvcruntime:frame.obj
 0001:0001c974       __FrameUnwindToState$filt$0 000000018001d974 f   libvcruntime:frame.obj
 0001:0001c98a       __FrameUnwindToState$fin$1 000000018001d98a f   libvcruntime:frame.obj
 0001:0001c9ad       _CallSETranslator$filt$0   000000018001d9ad f   libvcruntime:trnsctrl.obj
 0001:0001c9f9       _query_new_handler$fin$0   000000018001d9f9 f   libucrt:new_handler.obj
 0001:0001ca0f       ?filt$0@?0??common_exit@@YAXHW4_crt_exit_cleanup_mode@@W4_crt_exit_return_mode@@@Z@4HA 000000018001da0f f   libucrt:exit.obj
 0001:0001ca2a       ?fin$1@?0??common_exit@@YAXHW4_crt_exit_cleanup_mode@@W4_crt_exit_return_mode@@@Z@4HA 000000018001da2a f   libucrt:exit.obj
 0001:0001ca43       ?fin$0@?0???$?RV<lambda_e24bbb7b643b32fcea6fa61b31d4c984>@@AEAV<lambda_275893d493268fdec8709772e3fcec0e>@@V<lambda_9d71df4d7cf3f480f8d633942495c3b0>@@@?$__crt_seh_guarded_call@H@@QEAAH$$QEAV<lambda_e24bbb7b643b32fcea6fa61b31d4c984>@@AEAV<lambda_275893d493268fdec8709772e3fcec0e>@@$$QEAV<lambda_9d71df4d7cf3f480f8d633942495c3b0>@@@Z@4HA 000000018001da43 f   libucrt:onexit.obj
 0001:0001ca60       common_flush_all$fin$0     000000018001da60 f   libucrt:fflush.obj
 0001:0001ca7a       common_flush_all$fin$1     000000018001da7a f   libucrt:fflush.obj
 0001:0001ca93       fclose$fin$0               000000018001da93 f   libucrt:fclose.obj
 0001:0001ca93       fflush$fin$0               000000018001da93 f   libucrt:fflush.obj
 0001:0001caab       ?fin$0@?0???$?RV<lambda_aa279a7bcb127014629d5b1d62c7325d>@@AEAV<lambda_0a64b6a4deda75c01876f29c44fc5eb3>@@V<lambda_3323e69fbefe9d1a11713e670d47cdfa>@@@?$__crt_seh_guarded_call@H@@QEAAH$$QEAV<lambda_aa279a7bcb127014629d5b1d62c7325d>@@AEAV<lambda_0a64b6a4deda75c01876f29c44fc5eb3>@@$$QEAV<lambda_3323e69fbefe9d1a11713e670d47cdfa>@@@Z@4HA 000000018001daab f   libucrt:output.obj
 0001:0001caab       ?fin$0@?0???$?RV<lambda_7b91131dde12e1c3dfc74ff76b3f2eac>@@AEAV<lambda_dd75445284c072d0bd3768540cc698fa>@@V<lambda_16bc4ecb55b4718497c16bceaea2ceaf>@@@?$__crt_seh_guarded_call@H@@QEAAH$$QEAV<lambda_7b91131dde12e1c3dfc74ff76b3f2eac>@@AEAV<lambda_dd75445284c072d0bd3768540cc698fa>@@$$QEAV<lambda_16bc4ecb55b4718497c16bceaea2ceaf>@@@Z@4HA 000000018001daab f   libucrt:output.obj
 0001:0001caab       ?fin$0@?0???$?RV<lambda_7a5ef57ff966f610505f1d28a3d40618>@@AEAV<lambda_b721fa326cdb32351d23dfa67958c160>@@V<lambda_5e0fb27672408a07956fe59e48ccb2aa>@@@?$__crt_seh_guarded_call@H@@QEAAH$$QEAV<lambda_7a5ef57ff966f610505f1d28a3d40618>@@AEAV<lambda_b721fa326cdb32351d23dfa67958c160>@@$$QEAV<lambda_5e0fb27672408a07956fe59e48ccb2aa>@@@Z@4HA 000000018001daab f   libucrt:setvbuf.obj
 0001:0001cac6       raise$fin$0                000000018001dac6 f   libucrt:signal.obj
 0001:0001caea       _fcloseall$fin$0           000000018001daea f   libucrt:closeall.obj
 0001:0001cb03       ?fin$0@?0???$?RV<lambda_5e887d1dcbef67a5eb4283622ba103bf>@@AEAV<lambda_4466841279450cc726390878d4a41900>@@V<lambda_341c25c0346d94847f1f3c463c57e077>@@@?$__crt_seh_guarded_call@X@@QEAAX$$QEAV<lambda_5e887d1dcbef67a5eb4283622ba103bf>@@AEAV<lambda_4466841279450cc726390878d4a41900>@@$$QEAV<lambda_341c25c0346d94847f1f3c463c57e077>@@@Z@4HA 000000018001db03 f   libucrt:per_thread_data.obj
 0001:0001cb03       ?fin$0@?0???$?RV<lambda_c36588078e9f5dfd39652860aa6b3aaf>@@AEAV<lambda_ec61778202f4f5fc7e7711acc23c3bca>@@V<lambda_dc9d2797ccde5d239b4a0efae8ebd7db>@@@?$__crt_seh_guarded_call@P6AXH@Z@@QEAAP6AXH@Z$$QEAV<lambda_c36588078e9f5dfd39652860aa6b3aaf>@@AEAV<lambda_ec61778202f4f5fc7e7711acc23c3bca>@@$$QEAV<lambda_dc9d2797ccde5d239b4a0efae8ebd7db>@@@Z@4HA 000000018001db03 f   libucrt:signal.obj
 0001:0001cb03       ?fin$0@?0???$?RV<lambda_b8c45f8f788dd370798f47cfe8ac3a86>@@AEAV<lambda_4e60a939b0d047cfe11ddc22648dfba9>@@V<lambda_332c3edc96d0294ec56c57d38c1cdfd5>@@@?$__crt_seh_guarded_call@H@@QEAAH$$QEAV<lambda_b8c45f8f788dd370798f47cfe8ac3a86>@@AEAV<lambda_4e60a939b0d047cfe11ddc22648dfba9>@@$$QEAV<lambda_332c3edc96d0294ec56c57d38c1cdfd5>@@@Z@4HA 000000018001db03 f   libucrt:onexit.obj
 0001:0001cb03       ?fin$0@?0???$?RV<lambda_46352004c1216016012b18bd6f87e700>@@AEAV<lambda_3bd07e1a1191394380780325891bf33f>@@V<lambda_334532d3f185bcaa59b5be82d7d22bff>@@@?$__crt_seh_guarded_call@X@@QEAAX$$QEAV<lambda_46352004c1216016012b18bd6f87e700>@@AEAV<lambda_3bd07e1a1191394380780325891bf33f>@@$$QEAV<lambda_334532d3f185bcaa59b5be82d7d22bff>@@@Z@4HA 000000018001db03 f   libucrt:per_thread_data.obj
 0001:0001cb03       ?fin$0@?0???$?RV<lambda_72d1df2b273a38828b1ce30cbf4cdab5>@@AEAV<lambda_876a65b173b8412d3a47c70a915b0cf4>@@V<lambda_41932305e351933ebe8f8be3ed8bb5dc>@@@?$__crt_seh_guarded_call@X@@QEAAX$$QEAV<lambda_72d1df2b273a38828b1ce30cbf4cdab5>@@AEAV<lambda_876a65b173b8412d3a47c70a915b0cf4>@@$$QEAV<lambda_41932305e351933ebe8f8be3ed8bb5dc>@@@Z@4HA 000000018001db03 f   libucrt:per_thread_data.obj
 0001:0001cb03       ?fin$0@?0???$?RV<lambda_fb3a7dec4e47f37f22dae91bb15c9095>@@AEAV<lambda_698284760c8add0bfb0756c19673e34b>@@V<lambda_dfb8eca1e75fef3034a8fb18dd509707>@@@?$__crt_seh_guarded_call@X@@QEAAX$$QEAV<lambda_fb3a7dec4e47f37f22dae91bb15c9095>@@AEAV<lambda_698284760c8add0bfb0756c19673e34b>@@$$QEAV<lambda_dfb8eca1e75fef3034a8fb18dd509707>@@@Z@4HA 000000018001db03 f   libucrt:per_thread_data.obj
 0001:0001cb03       ?fin$0@?0???$?RV<lambda_99476a1ad63dd22509b5d3e65b0ffc95>@@AEAV<lambda_ad1ced32f4ac17aa236e5ef05d6b3b7c>@@V<lambda_f7424dd8d45958661754dc4f2697e9c3>@@@?$__crt_seh_guarded_call@X@@QEAAX$$QEAV<lambda_99476a1ad63dd22509b5d3e65b0ffc95>@@AEAV<lambda_ad1ced32f4ac17aa236e5ef05d6b3b7c>@@$$QEAV<lambda_f7424dd8d45958661754dc4f2697e9c3>@@@Z@4HA 000000018001db03 f   libucrt:mbctype.obj
 0001:0001cb1d       __acrt_update_thread_multibyte_data$fin$0 000000018001db1d f   libucrt:mbctype.obj
 0001:0001cb36       __acrt_update_thread_locale_data$fin$0 000000018001db36 f   libucrt:locale_refcounting.obj
 0001:0001cb36       __acrt_uninitialize_locale$fin$0 000000018001db36 f   libucrt:wsetlocale.obj
 0001:0001cb4f       ?fin$0@?0???$common_lseek@_J@@YA_JH_JH@Z@4HA 000000018001db4f f   libucrt:lseek.obj
 0001:0001cb4f       _write$fin$0               000000018001db4f f   libucrt:write.obj
 0001:0001cb66       __acrt_initialize_lowio$fin$0 000000018001db66 f   libucrt:ioinit.obj
 0001:0001cb66       __acrt_lowio_ensure_fh_exists$fin$0 000000018001db66 f   libucrt:osfinfo.obj
 0001:0001cb7f       ?fin$0@?0???$?RV<lambda_b521505b218e5242e90febf6bfebc422>@@AEAV<lambda_6978c1fb23f02e42e1d9e99668cc68aa>@@V<lambda_314360699dd331753a4119843814e9a7>@@@?$__crt_seh_guarded_call@H@@QEAAH$$QEAV<lambda_b521505b218e5242e90febf6bfebc422>@@AEAV<lambda_6978c1fb23f02e42e1d9e99668cc68aa>@@$$QEAV<lambda_314360699dd331753a4119843814e9a7>@@@Z@4HA 000000018001db7f f   libucrt:commit.obj
 0001:0001cb7f       ?fin$0@?0???$?RV<lambda_bfedae4ebbf01fab1bb6dcc6a9e276e0>@@AEAV<lambda_2fe9b910cf3cbf4a0ab98a02ba45b3ec>@@V<lambda_237c231691f317818eb88cc1d5d642d6>@@@?$__crt_seh_guarded_call@H@@QEAAH$$QEAV<lambda_bfedae4ebbf01fab1bb6dcc6a9e276e0>@@AEAV<lambda_2fe9b910cf3cbf4a0ab98a02ba45b3ec>@@$$QEAV<lambda_237c231691f317818eb88cc1d5d642d6>@@@Z@4HA 000000018001db7f f   libucrt:close.obj
 0001:0001cb99       common_control87$filt$0    000000018001db99 f   libucrt:ieee.obj
 0001:0001cb99       _ctrlfp$filt$0             000000018001db99 f   libucrt:fpctrl.obj
 0001:0001cbd0       _IsNonwritableInCurrentImage$filt$0 000000018001dbd0 f   LIBCMT:pesect.obj
 0002:000004f8       GS_ExceptionPointers       000000018001e4f8     LIBCMT:gs_report.obj
 0002:00000570       ?ExceptionTemplate@?1??_CxxThrowException@@9@4UEHExceptionRecord@@B 000000018001e570     libvcruntime:throw.obj
 0002:000005b0       ?ExceptionTemplate@?1??_UnwindNestedFrames@@9@4U_EXCEPTION_RECORD@@B 000000018001e5b0     libvcruntime:trnsctrl.obj
 0002:00000648       ?module_names@?A0x679b24ab@@3QBQEB_WB 000000018001e648     libvcruntime:winapi_downlevel.obj
 0002:00000718       ?candidate_modules@?1??try_get_FlsAlloc@@YAP6AKP6AXPEAX@Z@ZXZ@4QBW4module_id@?A0x679b24ab@@B 000000018001e718     libvcruntime:winapi_downlevel.obj
 0002:00000730       ?candidate_modules@?1??try_get_FlsFree@@YAP6AHK@ZXZ@4QBW4module_id@?A0x679b24ab@@B 000000018001e730     libvcruntime:winapi_downlevel.obj
 0002:00000740       ?candidate_modules@?1??try_get_FlsGetValue@@YAP6APEAXK@ZXZ@4QBW4module_id@?A0x679b24ab@@B 000000018001e740     libvcruntime:winapi_downlevel.obj
 0002:00000758       ?candidate_modules@?1??try_get_FlsSetValue@@YAP6AHKPEAX@ZXZ@4QBW4module_id@?A0x679b24ab@@B 000000018001e758     libvcruntime:winapi_downlevel.obj
 0002:00000770       ?candidate_modules@?1??try_get_InitializeCriticalSectionEx@@YAP6AHPEAU_RTL_CRITICAL_SECTION@@KK@ZXZ@4QBW4module_id@?A0x679b24ab@@B 000000018001e770     libvcruntime:winapi_downlevel.obj
 0002:000007a0       ?tokenTable@@3QBQEBDB      000000018001e7a0     libvcruntime:undname.obj
 0002:00000810       ?nameTable@@3QBQEBDB       000000018001e810     libvcruntime:undname.obj
 0002:00000a98       ?rttiTable@@3QBQEBDB       000000018001ea98     libvcruntime:undname.obj
 0002:00001440       errtable                   000000018001f440     libucrt:errno.obj
 0002:00001730       __acrt_initializers        000000018001f730     libucrt:initialization.obj
 0002:000023a0       module_names               00000001800203a0     libucrt:winapi_thunks.obj
 0002:000028d0       ?candidate_modules@?1??try_get_FlsAlloc@@YAP6AKP6AXPEAX@Z@ZXZ@4QBW4module_id@?A0x63058377@@B 00000001800208d0     libucrt:winapi_thunks.obj
 0002:000028d8       ?candidate_modules@?1??try_get_FlsFree@@YAP6AHK@ZXZ@4QBW4module_id@?A0x63058377@@B 00000001800208d8     libucrt:winapi_thunks.obj
 0002:000028e0       ?candidate_modules@?1??try_get_FlsGetValue@@YAP6APEAXK@ZXZ@4QBW4module_id@?A0x63058377@@B 00000001800208e0     libucrt:winapi_thunks.obj
 0002:000028e8       ?candidate_modules@?1??try_get_FlsSetValue@@YAP6AHKPEAX@ZXZ@4QBW4module_id@?A0x63058377@@B 00000001800208e8     libucrt:winapi_thunks.obj
 0002:000028f0       ?candidate_modules@?1??try_get_GetActiveWindow@@YAP6APEAUHWND__@@XZXZ@4QBW4module_id@?A0x63058377@@B 00000001800208f0     libucrt:winapi_thunks.obj
 0002:00002908       ?candidate_modules@?1??try_get_GetCurrentPackageId@@YAP6AJPEAIPEAE@ZXZ@4QBW4module_id@?A0x63058377@@B 0000000180020908     libucrt:winapi_thunks.obj
 0002:00002928       ?candidate_modules@?1??try_get_GetLastActivePopup@@YAP6APEAUHWND__@@PEAU2@@ZXZ@4QBW4module_id@?A0x63058377@@B 0000000180020928     libucrt:winapi_thunks.obj
 0002:00002948       ?candidate_modules@?1??try_get_GetProcessWindowStation@@YAP6APEAUHWINSTA__@@XZXZ@4QBW4module_id@?A0x63058377@@B 0000000180020948     libucrt:winapi_thunks.obj
 0002:00002968       ?candidate_modules@?1??try_get_GetUserObjectInformationW@@YAP6AHPEAXH0KPEAK@ZXZ@4QBW4module_id@?A0x63058377@@B 0000000180020968     libucrt:winapi_thunks.obj
 0002:00002990       ?candidate_modules@?1??try_get_InitializeCriticalSectionEx@@YAP6AHPEAU_RTL_CRITICAL_SECTION@@KK@ZXZ@4QBW4module_id@?A0x63058377@@B 0000000180020990     libucrt:winapi_thunks.obj
 0002:00002998       ?candidate_modules@?1??try_get_LCMapStringEx@@YAP6AHPEB_WK0HPEA_WHPEAU_nlsversioninfo@@PEAX_J@ZXZ@4QBW4module_id@?A0x63058377@@B 0000000180020998     libucrt:winapi_thunks.obj
 0002:000029b0       ?candidate_modules@?1??try_get_LocaleNameToLCID@@YAP6AKPEB_WK@ZXZ@4QBW4module_id@?A0x63058377@@B 00000001800209b0     libucrt:winapi_thunks.obj
 0002:000029d0       ?candidate_modules@?1??try_get_MessageBoxA@@YAP6AHPEAUHWND__@@PEBD1I@ZXZ@4QBW4module_id@?A0x63058377@@B 00000001800209d0     libucrt:winapi_thunks.obj
 0002:000029e8       ?candidate_modules@?1??try_get_MessageBoxW@@YAP6AHPEAUHWND__@@PEB_W1I@ZXZ@4QBW4module_id@?A0x63058377@@B 00000001800209e8     libucrt:winapi_thunks.obj
 0002:00002a58       _mb_locale_names           0000000180020a58     libucrt:mbctype.obj
 0002:000032d0       LcidToLocaleNameTable      00000001800212d0     libucrt:lcidtoname_downlevel.obj
 0002:00004d30       LocaleNameToIndexTable     0000000180022d30     libucrt:lcidtoname_downlevel.obj
 0002:00006fd0       __real_ninf                0000000180024fd0     libucrt:log10.obj
 0002:00006fe0       __real_inf                 0000000180024fe0     libucrt:log10.obj
 0002:00006ff0       __real_neg_qnan            0000000180024ff0     libucrt:log10.obj
 0002:00007000       __real_qnanbit             0000000180025000     libucrt:log10.obj
 0002:00007010       __int_1023                 0000000180025010     libucrt:log10.obj
 0002:00007020       __mask_001                 0000000180025020     libucrt:log10.obj
 0002:00007030       __mask_mant                0000000180025030     libucrt:log10.obj
 0002:00007040       __mask_mant_top8           0000000180025040     libucrt:log10.obj
 0002:00007050       __mask_mant9               0000000180025050     libucrt:log10.obj
 0002:00007060       __real_log10_e             0000000180025060     libucrt:log10.obj
 0002:00007070       __real_log10_e_lead        0000000180025070     libucrt:log10.obj
 0002:00007080       __real_log10_e_tail        0000000180025080     libucrt:log10.obj
 0002:00007090       __real_log10_2_lead        0000000180025090     libucrt:log10.obj
 0002:000070a0       __real_log10_2_tail        00000001800250a0     libucrt:log10.obj
 0002:000070b0       __real_two                 00000001800250b0     libucrt:log10.obj
 0002:000070c0       __real_one                 00000001800250c0     libucrt:log10.obj
 0002:000070d0       __real_half                00000001800250d0     libucrt:log10.obj
 0002:000070e0       __mask_100                 00000001800250e0     libucrt:log10.obj
 0002:000070f0       __real_1_over_512          00000001800250f0     libucrt:log10.obj
 0002:00007100       __real_1_over_2            0000000180025100     libucrt:log10.obj
 0002:00007110       __real_1_over_3            0000000180025110     libucrt:log10.obj
 0002:00007120       __real_1_over_4            0000000180025120     libucrt:log10.obj
 0002:00007130       __real_1_over_5            0000000180025130     libucrt:log10.obj
 0002:00007140       __real_1_over_6            0000000180025140     libucrt:log10.obj
 0002:00007150       __real_neg_1023            0000000180025150     libucrt:log10.obj
 0002:00007160       __mask_2045                0000000180025160     libucrt:log10.obj
 0002:00007170       __real_threshold           0000000180025170     libucrt:log10.obj
 0002:00007180       __real_near_one_lt         0000000180025180     libucrt:log10.obj
 0002:00007190       __real_near_one_gt         0000000180025190     libucrt:log10.obj
 0002:000071a0       __real_min_norm            00000001800251a0     libucrt:log10.obj
 0002:000071b0       __real_notsign             00000001800251b0     libucrt:log10.obj
 0002:000071c0       __real_ca1                 00000001800251c0     libucrt:log10.obj
 0002:000071d0       __real_ca2                 00000001800251d0     libucrt:log10.obj
 0002:000071e0       __real_ca3                 00000001800251e0     libucrt:log10.obj
 0002:000071f0       __real_ca4                 00000001800251f0     libucrt:log10.obj
 0002:00007200       __mask_lower               0000000180025200     libucrt:log10.obj
 0002:00007210       __flag_x_zero              0000000180025210     libucrt:log10.obj
 0002:00007214       __flag_x_neg               0000000180025214     libucrt:log10.obj
 0002:00007218       __flag_x_nan               0000000180025218     libucrt:log10.obj
 0002:00008a70       __real@433fffffffffffff    0000000180026a70     libucrt:fpsr.obj
 0002:00008a78       __real@c33fffffffffffff    0000000180026a78     libucrt:fpsr.obj
 0002:00009008       initstate                  0000000180027008     scrypt_lib:sha256.obj
 0002:00009028       epoch                      0000000180027028     scrypt_lib:gettimeofday.obj
 0002:000090a0       $cppxdata$?ScryptError@NodeScrypt@@YA?AV?$Local@VValue@v8@@@v8@@I@Z 00000001800270a0     scrypt_common.obj
 0002:000090c8       $cppxdata$?ScryptErrorDescr@?A0x3a241abb@@YAPEBDI@Z 00000001800270c8     scrypt_common.obj
 0002:000090f0       $cppxdata$?Error@Nan@@YA?AV?$Local@VValue@v8@@@v8@@PEBD@Z 00000001800270f0     scrypt_common.obj
 0002:00009158       $cppxdata$?params@@YAXAEBV?$FunctionCallbackInfo@VValue@v8@@@Nan@@@Z 0000000180027158     scrypt_params_async.obj
 0002:00009180       $cppxdata$?HandleOKCallback@ScryptParamsAsyncWorker@@UEAAXXZ 0000000180027180     scrypt_params_async.obj
 0002:000091a8       $cppxdata$??0ScryptParamsAsyncWorker@@QEAA@AEBV?$FunctionCallbackInfo@VValue@v8@@@Nan@@@Z 00000001800271a8     scrypt_params_async.obj
 0002:000091d0       $cppxdata$?WorkComplete@ScryptAsyncWorker@@UEAAXXZ 00000001800271d0     scrypt_params_async.obj
 0002:000091f8       $cppxdata$?HandleErrorCallback@ScryptAsyncWorker@@UEAAXXZ 00000001800271f8     scrypt_params_async.obj
 0002:00009220       $cppxdata$??1?$Persistent@VObject@v8@@V?$NonCopyablePersistentTraits@VObject@v8@@@2@@Nan@@QEAA@XZ 0000000180027220     scrypt_params_async.obj
 0002:00009248       $cppxdata$?HandleErrorCallback@AsyncWorker@Nan@@MEAAXXZ 0000000180027248     scrypt_params_async.obj
 0002:00009270       $cppxdata$?HandleOKCallback@AsyncWorker@Nan@@MEAAXXZ 0000000180027270     scrypt_params_async.obj
 0002:00009298       $cppxdata$?WorkComplete@AsyncWorker@Nan@@UEAAXXZ 0000000180027298     scrypt_params_async.obj
 0002:000092c0       $cppxdata$??1AsyncWorker@Nan@@UEAA@XZ 00000001800272c0     scrypt_params_async.obj
 0002:000092e8       $cppxdata$??0AsyncWorker@Nan@@QEAA@PEAVCallback@1@PEBD@Z 00000001800272e8     scrypt_params_async.obj
 0002:00009310       $cppxdata$?Call_@Callback@Nan@@AEBA?AV?$Local@VValue@v8@@@v8@@PEAVIsolate@4@V?$Local@VObject@v8@@@4@HQEAV34@@Z 0000000180027310     scrypt_params_async.obj
 0002:00009338       $cppxdata$?Call@Callback@Nan@@QEBA?AV?$MaybeLocal@VValue@v8@@@v8@@HQEAV?$Local@VValue@v8@@@4@PEAVAsyncResource@2@@Z 0000000180027338     scrypt_params_async.obj
 0002:00009360       $cppxdata$?Call@Callback@Nan@@QEBA?AV?$Local@VValue@v8@@@v8@@HQEAV34@@Z 0000000180027360     scrypt_params_async.obj
 0002:00009388       $cppxdata$?convert@?$ToFactory@VInteger@v8@@@imp@Nan@@SA?AV?$MaybeLocal@VInteger@v8@@@v8@@V?$Local@VValue@v8@@@5@@Z 0000000180027388     scrypt_params_async.obj
 0002:000093b0       $cppxdata$?kdf@@YAXAEBV?$FunctionCallbackInfo@VValue@v8@@@Nan@@@Z 00000001800273b0     scrypt_kdf_async.obj
 0002:000093d8       $cppxdata$?HandleOKCallback@ScryptKDFAsyncWorker@@UEAAXXZ 00000001800273d8     scrypt_kdf_async.obj
 0002:00009400       $cppxdata$??0ScryptKDFAsyncWorker@@QEAA@AEBV?$FunctionCallbackInfo@VValue@v8@@@Nan@@@Z 0000000180027400     scrypt_kdf_async.obj
 0002:00009428       $cppxdata$?GetFromPersistent@AsyncWorker@Nan@@QEBA?AV?$Local@VValue@v8@@@v8@@PEBD@Z 0000000180027428     scrypt_kdf_async.obj
 0002:00009450       $cppxdata$?kdfVerify@@YAXAEBV?$FunctionCallbackInfo@VValue@v8@@@Nan@@@Z 0000000180027450     scrypt_kdf-verify_async.obj
 0002:00009478       $cppxdata$?HandleOKCallback@ScryptKDFVerifyAsyncWorker@@UEAAXXZ 0000000180027478     scrypt_kdf-verify_async.obj
 0002:000094a0       $cppxdata$??0ScryptKDFVerifyAsyncWorker@@QEAA@AEBV?$FunctionCallbackInfo@VValue@v8@@@Nan@@@Z 00000001800274a0     scrypt_kdf-verify_async.obj
 0002:000094c8       $cppxdata$?hash@@YAXAEBV?$FunctionCallbackInfo@VValue@v8@@@Nan@@@Z 00000001800274c8     scrypt_hash_async.obj
 0002:000094f0       $cppxdata$?HandleOKCallback@ScryptHashAsyncWorker@@UEAAXXZ 00000001800274f0     scrypt_hash_async.obj
 0002:00009518       $cppxdata$??0ScryptHashAsyncWorker@@QEAA@AEBV?$FunctionCallbackInfo@VValue@v8@@@Nan@@@Z 0000000180027518     scrypt_hash_async.obj
 0002:00009540       $cppxdata$?New@?$Factory@VFunctionTemplate@v8@@@imp@Nan@@SA?AV?$Local@VFunctionTemplate@v8@@@v8@@P6AXAEBV?$FunctionCallbackInfo@VValue@v8@@@3@@ZV?$Local@VValue@v8@@@5@V?$Local@VSignature@v8@@@5@@Z 0000000180027540     scrypt_node.obj
 0002:00009568       $cppxdata$?Set@Nan@@YA?AV?$Maybe@_N@v8@@V?$Local@VObject@v8@@@3@V?$Local@VValue@v8@@@3@1@Z 0000000180027568     scrypt_node.obj
 0002:00009590       $cppxdata$?GetFunction@Nan@@YA?AV?$MaybeLocal@VFunction@v8@@@v8@@V?$Local@VFunctionTemplate@v8@@@3@@Z 0000000180027590     scrypt_node.obj
 0002:000095b8       $cppxdata$?NewInstance@Nan@@YA?AV?$MaybeLocal@VObject@v8@@@v8@@V?$Local@VObjectTemplate@v8@@@3@@Z 00000001800275b8     scrypt_node.obj
 0002:00009e60       $unwind$?Error@Nan@@YA?AV?$Local@VValue@v8@@@v8@@PEBD@Z 0000000180027e60     scrypt_common.obj
 0002:00009e74       $stateUnwindMap$?Call_@Callback@Nan@@AEBA?AV?$Local@VValue@v8@@@v8@@PEAVIsolate@4@V?$Local@VObject@v8@@@4@HQEAV34@@Z 0000000180027e74     scrypt_params_async.obj
 0002:00009e74       $stateUnwindMap$?HandleOKCallback@AsyncWorker@Nan@@MEAAXXZ 0000000180027e74     scrypt_params_async.obj
 0002:00009e74       $stateUnwindMap$?Error@Nan@@YA?AV?$Local@VValue@v8@@@v8@@PEBD@Z 0000000180027e74     scrypt_common.obj
 0002:00009e74       $stateUnwindMap$?HandleErrorCallback@AsyncWorker@Nan@@MEAAXXZ 0000000180027e74     scrypt_params_async.obj
 0002:00009e74       $stateUnwindMap$?HandleOKCallback@ScryptKDFVerifyAsyncWorker@@UEAAXXZ 0000000180027e74     scrypt_kdf-verify_async.obj
 0002:00009e74       $stateUnwindMap$?GetFromPersistent@AsyncWorker@Nan@@QEBA?AV?$Local@VValue@v8@@@v8@@PEBD@Z 0000000180027e74     scrypt_kdf_async.obj
 0002:00009e80       $ip2state$?Error@Nan@@YA?AV?$Local@VValue@v8@@@v8@@PEBD@Z 0000000180027e80     scrypt_common.obj
 0002:00009e98       $unwind$?ScryptErrorDescr@?A0x3a241abb@@YAPEBDI@Z 0000000180027e98     scrypt_common.obj
 0002:00009eb8       $stateUnwindMap$?ScryptErrorDescr@?A0x3a241abb@@YAPEBDI@Z 0000000180027eb8     scrypt_common.obj
 0002:00009ed0       $ip2state$?ScryptErrorDescr@?A0x3a241abb@@YAPEBDI@Z 0000000180027ed0     scrypt_common.obj
 0002:00009f08       $unwind$?ScryptError@NodeScrypt@@YA?AV?$Local@VValue@v8@@@v8@@I@Z 0000000180027f08     scrypt_common.obj
 0002:00009f1c       $stateUnwindMap$?ScryptError@NodeScrypt@@YA?AV?$Local@VValue@v8@@@v8@@I@Z 0000000180027f1c     scrypt_common.obj
 0002:00009f1c       $stateUnwindMap$?HandleErrorCallback@ScryptAsyncWorker@@UEAAXXZ 0000000180027f1c     scrypt_params_async.obj
 0002:00009f28       $ip2state$?ScryptError@NodeScrypt@@YA?AV?$Local@VValue@v8@@@v8@@I@Z 0000000180027f28     scrypt_common.obj
 0002:00009f40       $unwind$?__StateFromIp@@YAHPEBU_s_FuncInfo@@PEAU_xDISPATCHER_CONTEXT@@_J@Z 0000000180027f40     libvcruntime:ehstate.obj
 0002:00009f40       $unwind$?__GetUnwindTryBlock@@YAHPEA_KPEAU_xDISPATCHER_CONTEXT@@PEBU_s_FuncInfo@@@Z 0000000180027f40     libvcruntime:ehstate.obj
 0002:00009f40       $unwind$_purecall          0000000180027f40     libvcruntime:purevirt.obj
 0002:00009f40       $unwind$_clearfp           0000000180027f40     libucrt:ieee.obj
 0002:00009f40       $unwind$__acrt_allocate_buffer_for_argv 0000000180027f40     libucrt:argv_parsing.obj
 0002:00009f40       $unwind$?AsyncExecuteComplete@Nan@@YAXPEAUuv_work_s@@@Z 0000000180027f40     scrypt_params_async.obj
 0002:00009f40       $unwind$__vcrt_freeptd     0000000180027f40     libvcruntime:per_thread_data.obj
 0002:00009f40       $unwind$__acrt_can_show_message_box 0000000180027f40     libucrt:winapi_thunks.obj
 0002:00009f40       $unwind$_clrfp             0000000180027f40     libucrt:fpctrl.obj
 0002:00009f40       $unwind$__vcrt_uninitialize_locks 0000000180027f40     libvcruntime:locks.obj
 0002:00009f40       $unwind$__vcrt_initialize_locks 0000000180027f40     libvcruntime:locks.obj
 0002:00009f40       $unwind$__std_type_info_destroy_list 0000000180027f40     libvcruntime:std_type_info.obj
 0002:00009f40       $unwind$??0exception@std@@QEAA@AEBV01@@Z 0000000180027f40     libcpmt:xthrow.obj
 0002:00009f40       $unwind$??0bad_alloc@std@@QEAA@AEBV01@@Z 0000000180027f40     libcpmt:xthrow.obj
 0002:00009f40       $unwind$uninitialize_allocated_memory 0000000180027f40     libucrt:initialization.obj
 0002:00009f40       $unwind$??0logic_error@std@@QEAA@AEBV01@@Z 0000000180027f40     libcpmt:xthrow.obj
 0002:00009f40       $unwind$__std_exception_destroy 0000000180027f40     libvcruntime:std_exception.obj
 0002:00009f40       $unwind$??$message_box_wait_thread@_W@@YAKQEAX@Z 0000000180027f40     libucrt:crtmbox.obj
 0002:00009f40       $unwind$??0length_error@std@@QEAA@AEBV01@@Z 0000000180027f40     libcpmt:xthrow.obj
 0002:00009f40       $unwind$??0out_of_range@std@@QEAA@AEBV01@@Z 0000000180027f40     libcpmt:xthrow.obj
 0002:00009f40       $unwind$__acrt_uninitialize_locks 0000000180027f40     libucrt:locks.obj
 0002:00009f40       $unwind$_SetImageBase      0000000180027f40     libvcruntime:trnsctrl.obj
 0002:00009f40       $unwind$_set_statfp        0000000180027f40     libucrt:fpctrl.obj
 0002:00009f40       $unwind$__acrt_initialize_locks 0000000180027f40     libucrt:locks.obj
 0002:00009f40       $unwind$??0bad_exception@std@@QEAA@AEBV01@@Z 0000000180027f40     libvcruntime:frame.obj
 0002:00009f40       $unwind$__acrt_fp_strflt_to_string 0000000180027f40     libucrt:_fptostr.obj
 0002:00009f40       $unwind$_SetThrowImageBase 0000000180027f40     libvcruntime:trnsctrl.obj
 0002:00009f40       $unwind$_CreateFrameInfo   0000000180027f40     libvcruntime:trnsctrl.obj
 0002:00009f40       $unwind$_malloc_base       0000000180027f40     libucrt:malloc_base.obj
 0002:00009f40       $unwind$_fflush_nolock     0000000180027f40     libucrt:fflush.obj
 0002:00009f40       $unwind$_IsExceptionObjectToBeDestroyed 0000000180027f40     libvcruntime:trnsctrl.obj
 0002:00009f40       $unwind$initialize_pointers 0000000180027f40     libucrt:initialization.obj
 0002:00009f40       $unwind$?exit_or_terminate_process@@YAXI@Z 0000000180027f40     libucrt:exit.obj
 0002:00009f40       $unwind$_calloc_base       0000000180027f40     libucrt:calloc_base.obj
 0002:00009f40       $unwind$_setfpstatusword   0000000180027f40     libucrt:_fenvutils.obj
 0002:00009f40       $unwind$__acrt_uninitialize_winapi_thunks 0000000180027f40     libucrt:winapi_thunks.obj
 0002:00009f40       $unwind$?Execute@ScryptKDFVerifyAsyncWorker@@UEAAXXZ 0000000180027f40     scrypt_kdf-verify_async.obj
 0002:00009f40       $unwind$??1?$basic_string@DU?$char_traits@D@std@@V?$allocator@D@2@@std@@QEAA@XZ 0000000180027f40     scrypt_common.obj
 0002:00009f40       $unwind$__scrt_uninitialize_crt 0000000180027f40     LIBCMT:utility.obj
 0002:00009f40       $unwind$__scrt_initialize_crt 0000000180027f40     LIBCMT:utility.obj
 0002:00009f40       $unwind$__scrt_release_startup_lock 0000000180027f40     LIBCMT:utility.obj
 0002:00009f40       $unwind$__raise_securityfailure 0000000180027f40     LIBCMT:gs_report.obj
 0002:00009f40       $unwind$_onexit            0000000180027f40     LIBCMT:utility.obj
 0002:00009f40       $unwind$__acrt_update_multibyte_info 0000000180027f40     libucrt:locale_update.obj
 0002:00009f40       $unwind$__acrt_update_locale_info 0000000180027f40     libucrt:locale_update.obj
 0002:00009f40       $unwind$__acrt_freeptd     0000000180027f40     libucrt:per_thread_data.obj
 0002:00009f40       $unwind$fesetenv           0000000180027f40     libucrt:fesetenv.obj
 0002:00009f40       $unwind$feholdexcept       0000000180027f40     libucrt:feholdexcept.obj
 0002:00009f40       $unwind$fegetenv           0000000180027f40     libucrt:fegetenv.obj
 0002:00009f40       $unwind$wcscpy_s           0000000180027f40     libucrt:wcscpy_s.obj
 0002:00009f40       $unwind$wcscat_s           0000000180027f40     libucrt:wcscat_s.obj
 0002:00009f40       $unwind$strcpy_s           0000000180027f40     libucrt:strcpy_s.obj
 0002:00009f40       $unwind$?type_case_integer@?$output_processor@_WV?$string_output_adapter@_W@__crt_stdio_output@@V?$standard_base@_WV?$string_output_adapter@_W@__crt_stdio_output@@@2@@__crt_stdio_output@@AEAA_NI_N@Z 0000000180027f40     libucrt:output.obj
 0002:00009f40       $unwind$__acrt_stdio_allocate_buffer_nolock 0000000180027f40     libucrt:_getbuf.obj
 0002:00009f40       $unwind$__acrt_stdio_free_buffer_nolock 0000000180027f40     libucrt:_freebuf.obj
 0002:00009f40       $unwind$??0?$output_processor@_WV?$string_output_adapter@_W@__crt_stdio_output@@V?$standard_base@_WV?$string_output_adapter@_W@__crt_stdio_output@@@2@@__crt_stdio_output@@QEAA@AEBV?$string_output_adapter@_W@1@_KQEB_WQEAU__crt_locale_pointers@@QEAD@Z 0000000180027f40     libucrt:output.obj
 0002:00009f40       $unwind$__acrt_uninitialize_stdio 0000000180027f40     libucrt:_file.obj
 0002:00009f40       $unwind$?type_case_integer@?$output_processor@_WV?$stream_output_adapter@_W@__crt_stdio_output@@V?$standard_base@_WV?$stream_output_adapter@_W@__crt_stdio_output@@@2@@__crt_stdio_output@@AEAA_NI_N@Z 0000000180027f40     libucrt:output.obj
 0002:00009f40       $unwind$??0?$output_processor@DV?$stream_output_adapter@D@__crt_stdio_output@@V?$standard_base@DV?$stream_output_adapter@D@__crt_stdio_output@@@2@@__crt_stdio_output@@QEAA@AEBV?$stream_output_adapter@D@1@_KQEBDQEAU__crt_locale_pointers@@QEAD@Z 0000000180027f40     libucrt:output.obj
 0002:00009f40       $unwind$??0?$output_processor@_WV?$stream_output_adapter@_W@__crt_stdio_output@@V?$standard_base@_WV?$stream_output_adapter@_W@__crt_stdio_output@@@2@@__crt_stdio_output@@QEAA@AEBV?$stream_output_adapter@_W@1@_KQEB_WQEAU__crt_locale_pointers@@QEAD@Z 0000000180027f40     libucrt:output.obj
 0002:00009f40       $unwind$??0bad_array_new_length@std@@QEAA@AEBV01@@Z 0000000180027f40     LIBCMT:throw_bad_alloc.obj
 0002:00009f40       $unwind$?state_case_normal@?$output_processor@DV?$stream_output_adapter@D@__crt_stdio_output@@V?$standard_base@DV?$stream_output_adapter@D@__crt_stdio_output@@@2@@__crt_stdio_output@@AEAA_NXZ 0000000180027f40     libucrt:output.obj
 0002:00009f40       $unwind$?state_case_normal_tchar@?$output_processor@DV?$stream_output_adapter@D@__crt_stdio_output@@V?$standard_base@DV?$stream_output_adapter@D@__crt_stdio_output@@@2@@__crt_stdio_output@@AEAA_ND@Z 0000000180027f40     libucrt:output.obj
 0002:00009f40       $unwind$??2@YAPEAX_K@Z     0000000180027f40     LIBCMT:new_scalar.obj
 0002:00009f40       $unwind$?type_case_integer@?$output_processor@DV?$stream_output_adapter@D@__crt_stdio_output@@V?$standard_base@DV?$stream_output_adapter@D@__crt_stdio_output@@@2@@__crt_stdio_output@@AEAA_NI_N@Z 0000000180027f40     libucrt:output.obj
 0002:00009f40       $unwind$??_Gtype_info@@UEAAPEAXI@Z 0000000180027f40     LIBCMT:std_type_info_static.obj
 0002:00009f48       $unwind$__vcrt_FlsFree     0000000180027f48     libvcruntime:winapi_downlevel.obj
 0002:00009f48       $unwind$?erase@?$basic_string@DU?$char_traits@D@std@@V?$allocator@D@2@@std@@QEAAAEAV12@_K0@Z 0000000180027f48     scrypt_common.obj
 0002:00009f48       $unwind$_updatetlocinfoEx_nolock 0000000180027f48     libucrt:locale_refcounting.obj
 0002:00009f48       $unwind$?type_case_c_tchar@?$output_processor@DV?$stream_output_adapter@D@__crt_stdio_output@@V?$standard_base@DV?$stream_output_adapter@D@__crt_stdio_output@@@2@@__crt_stdio_output@@AEAA_ND@Z 0000000180027f48     libucrt:output.obj
 0002:00009f48       $unwind$wcsncat_s          0000000180027f48     libucrt:wcsncat_s.obj
 0002:00009f48       $unwind$libcperciva_SHA256_Final 0000000180027f48     scrypt_lib:sha256.obj
 0002:00009f48       $unwind$_callnewh          0000000180027f48     libucrt:new_handler.obj
 0002:00009f48       $unwind$??_Gbad_array_new_length@std@@UEAAPEAXI@Z 0000000180027f48     LIBCMT:throw_bad_alloc.obj
 0002:00009f48       $unwind$strncpy_s          0000000180027f48     libucrt:strncpy_s.obj
 0002:00009f48       $unwind$__acrt_get_parent_window 0000000180027f48     libucrt:winapi_thunks.obj
 0002:00009f48       $unwind$__acrt_getptd      0000000180027f48     libucrt:per_thread_data.obj
 0002:00009f48       $unwind$??0_LocaleUpdate@@QEAA@QEAU__crt_locale_pointers@@@Z 0000000180027f48     libucrt:stricmp.obj
 0002:00009f48       $unwind$__acrt_uninitialize_lowio 0000000180027f48     libucrt:ioinit.obj
 0002:00009f48       $unwind$?try_cor_exit_process@@YAXI@Z 0000000180027f48     libucrt:exit.obj
 0002:00009f48       $unwind$_realloc_base      0000000180027f48     libucrt:realloc_base.obj
 0002:00009f48       $unwind$_FindAndUnlinkFrame 0000000180027f48     libvcruntime:trnsctrl.obj
 0002:00009f48       $unwind$?internal_isupper_l@@YA_NHQEAU__crt_locale_pointers@@@Z 0000000180027f48     libucrt:tolower_toupper.obj
 0002:00009f48       $unwind$??_Gexception@std@@UEAAPEAXI@Z 0000000180027f48     libcpmt:xthrow.obj
 0002:00009f48       $unwind$?replace_current_thread_locale_nolock@@YAXQEAU__acrt_ptd@@QEAU__crt_locale_data@@@Z 0000000180027f48     libucrt:per_thread_data.obj
 0002:00009f48       $unwind$??_GScryptKDFAsyncWorker@@UEAAPEAXI@Z 0000000180027f48     scrypt_kdf_async.obj
 0002:00009f48       $unwind$?__SetUnwindTryBlock@@YAXPEA_KPEAU_xDISPATCHER_CONTEXT@@PEBU_s_FuncInfo@@H@Z 0000000180027f48     libvcruntime:ehstate.obj
 0002:00009f48       $unwind$??_Gbad_alloc@std@@UEAAPEAXI@Z 0000000180027f48     libcpmt:xthrow.obj
 0002:00009f48       $unwind$??$common_initialize_environment_nolock@D@@YAHXZ 0000000180027f48     libucrt:environment_initialization.obj
 0002:00009f48       $unwind$_close_nolock      0000000180027f48     libucrt:close.obj
 0002:00009f48       $unwind$_fclose_nolock     0000000180027f48     libucrt:fclose.obj
 0002:00009f48       $unwind$??_Gbad_exception@std@@UEAAPEAXI@Z 0000000180027f48     libvcruntime:frame.obj
 0002:00009f48       $unwind$??_GScryptHashAsyncWorker@@UEAAPEAXI@Z 0000000180027f48     scrypt_hash_async.obj
 0002:00009f48       $unwind$?force_decimal_point@__crt_stdio_output@@YAXPEADQEAU__crt_locale_pointers@@@Z 0000000180027f48     libucrt:output.obj
 0002:00009f48       $unwind$__acrt_FlsGetValue 0000000180027f48     libucrt:winapi_thunks.obj
 0002:00009f48       $unwind$__vcrt_FlsGetValue 0000000180027f48     libvcruntime:winapi_downlevel.obj
 0002:00009f48       $unwind$__acrt_FlsFree     0000000180027f48     libucrt:winapi_thunks.obj
 0002:00009f48       $unwind$??_Glogic_error@std@@UEAAPEAXI@Z 0000000180027f48     libcpmt:xthrow.obj
 0002:00009f48       $unwind$__acrt_FlsAlloc    0000000180027f48     libucrt:winapi_thunks.obj
 0002:00009f48       $unwind$??_GScryptParamsAsyncWorker@@UEAAPEAXI@Z 0000000180027f48     scrypt_params_async.obj
 0002:00009f48       $unwind$??$common_xtox@K_W@@YAHKQEA_W_KI_N@Z 0000000180027f48     libucrt:xtoa.obj
 0002:00009f48       $unwind$??0?$basic_string@DU?$char_traits@D@std@@V?$allocator@D@2@@std@@QEAA@$$QEAV01@@Z 0000000180027f48     scrypt_common.obj
 0002:00009f48       $unwind$__vcrt_FlsAlloc    0000000180027f48     libvcruntime:winapi_downlevel.obj
 0002:00009f48       $unwind$??_Glength_error@std@@UEAAPEAXI@Z 0000000180027f48     libcpmt:xthrow.obj
 0002:00009f48       $unwind$?ExFilterRethrow@@YAHPEAU_EXCEPTION_POINTERS@@PEAUEHExceptionRecord@@PEAH@Z 0000000180027f48     libvcruntime:frame.obj
 0002:00009f48       $unwind$__acrt_stdio_begin_temporary_buffering_nolock 0000000180027f48     libucrt:_sftbuf.obj
 0002:00009f48       $unwind$__acrt_invoke_user_matherr 0000000180027f48     libucrt:matherr.obj
 0002:00009f48       $unwind$??_GAsyncWorker@Nan@@UEAAPEAXI@Z 0000000180027f48     scrypt_params_async.obj
 0002:00009f48       $unwind$??_GScryptKDFVerifyAsyncWorker@@UEAAPEAXI@Z 0000000180027f48     scrypt_kdf-verify_async.obj
 0002:00009f48       $unwind$??_Gout_of_range@std@@UEAAPEAXI@Z 0000000180027f48     libcpmt:xthrow.obj
 0002:00009f48       $unwind$__acrt_errno_map_os_error 0000000180027f48     libucrt:errno.obj
 0002:00009f54       $unwind$?free_crt_array_internal@@YAXQEAPEBX_K@Z 0000000180027f54     libucrt:inittime.obj
 0002:00009f54       $unwind$?type_case_Z@?$output_processor@_WV?$stream_output_adapter@_W@__crt_stdio_output@@V?$standard_base@_WV?$stream_output_adapter@_W@__crt_stdio_output@@@2@@__crt_stdio_output@@AEAA_NXZ 0000000180027f54     libucrt:output.obj
 0002:00009f54       $unwind$?type_case_n@?$output_processor@_WV?$string_output_adapter@_W@__crt_stdio_output@@V?$standard_base@_WV?$string_output_adapter@_W@__crt_stdio_output@@@2@@__crt_stdio_output@@AEAA_NXZ 0000000180027f54     libucrt:output.obj
 0002:00009f54       $unwind$?type_case_s@?$output_processor@_WV?$stream_output_adapter@_W@__crt_stdio_output@@V?$standard_base@_WV?$stream_output_adapter@_W@__crt_stdio_output@@@2@@__crt_stdio_output@@AEAA_NXZ 0000000180027f54     libucrt:output.obj
 0002:00009f54       $unwind$??$common_lseek_nolock@_J@@YA_JH_JH@Z 0000000180027f54     libucrt:lseek.obj
 0002:00009f54       $unwind$__vcrt_getptd_noexit 0000000180027f54     libvcruntime:per_thread_data.obj
 0002:00009f54       $unwind$__acrt_stdio_flush_nolock 0000000180027f54     libucrt:fflush.obj
 0002:00009f54       $unwind$_RTC_Initialize    0000000180027f54     LIBCMT:_initsect_.obj
 0002:00009f54       $unwind$__acrt_stdio_flush_and_write_wide_nolock 0000000180027f54     libucrt:_flsbuf.obj
 0002:00009f54       $unwind$_RTC_Terminate     0000000180027f54     LIBCMT:_initsect_.obj
 0002:00009f54       $unwind$__acrt_FlsSetValue 0000000180027f54     libucrt:winapi_thunks.obj
 0002:00009f54       $unwind$_DllMainCRTStartup 0000000180027f54     LIBCMT:dll_dllmain.obj
 0002:00009f54       $unwind$__vcrt_FlsSetValue 0000000180027f54     libvcruntime:winapi_downlevel.obj
 0002:00009f54       $unwind$_exception_enabled 0000000180027f54     libucrt:libm_error.obj
 0002:00009f54       $unwind$??R<lambda_ad1ced32f4ac17aa236e5ef05d6b3b7c>@@QEBAXXZ 0000000180027f54     libucrt:mbctype.obj
 0002:00009f54       $unwind$__acrt_LocaleNameToLCID 0000000180027f54     libucrt:winapi_thunks.obj
 0002:00009f54       $unwind$__acrt_getptd_noexit 0000000180027f54     libucrt:per_thread_data.obj
 0002:00009f54       $unwind$?type_case_s@?$output_processor@_WV?$string_output_adapter@_W@__crt_stdio_output@@V?$standard_base@_WV?$string_output_adapter@_W@__crt_stdio_output@@@2@@__crt_stdio_output@@AEAA_NXZ 0000000180027f54     libucrt:output.obj
 0002:00009f54       $unwind$?type_case_n@?$output_processor@DV?$stream_output_adapter@D@__crt_stdio_output@@V?$standard_base@DV?$stream_output_adapter@D@__crt_stdio_output@@@2@@__crt_stdio_output@@AEAA_NXZ 0000000180027f54     libucrt:output.obj
 0002:00009f54       $unwind$memcpy_s           0000000180027f54     libucrt:cfout.obj
 0002:00009f54       $unwind$__acrt_execute_uninitializers 0000000180027f54     libucrt:shared_initialization.obj
 0002:00009f54       $unwind$__acrt_stdio_flush_and_write_narrow_nolock 0000000180027f54     libucrt:_flsbuf.obj
 0002:00009f54       $unwind$_initterm_e        0000000180027f54     libucrt:initterm.obj
 0002:00009f54       $unwind$?type_case_Z@?$output_processor@DV?$stream_output_adapter@D@__crt_stdio_output@@V?$standard_base@DV?$stream_output_adapter@D@__crt_stdio_output@@@2@@__crt_stdio_output@@AEAA_NXZ 0000000180027f54     libucrt:output.obj
 0002:00009f54       $unwind$?type_case_s@?$output_processor@DV?$stream_output_adapter@D@__crt_stdio_output@@V?$standard_base@DV?$stream_output_adapter@D@__crt_stdio_output@@@2@@__crt_stdio_output@@AEAA_NXZ 0000000180027f54     libucrt:output.obj
 0002:00009f54       $unwind$?assign@?$basic_string@DU?$char_traits@D@std@@V?$allocator@D@2@@std@@QEAAAEAV12@PEBD_K@Z 0000000180027f54     scrypt_common.obj
 0002:00009f54       $unwind$?type_case_n@?$output_processor@_WV?$stream_output_adapter@_W@__crt_stdio_output@@V?$standard_base@_WV?$stream_output_adapter@_W@__crt_stdio_output@@@2@@__crt_stdio_output@@AEAA_NXZ 0000000180027f54     libucrt:output.obj
 0002:00009f54       $unwind$?type_case_Z@?$output_processor@_WV?$string_output_adapter@_W@__crt_stdio_output@@V?$standard_base@_WV?$string_output_adapter@_W@__crt_stdio_output@@@2@@__crt_stdio_output@@AEAA_NXZ 0000000180027f54     libucrt:output.obj
 0002:00009f64       $unwind$?assign@?$basic_string@DU?$char_traits@D@std@@V?$allocator@D@2@@std@@QEAAAEAV12@AEBV12@_K1@Z 0000000180027f64     scrypt_common.obj
 0002:00009f64       $unwind$__std_exception_copy 0000000180027f64     libvcruntime:std_exception.obj
 0002:00009f64       $unwind$?initialize_stdio_handles_nolock@@YAXXZ 0000000180027f64     libucrt:ioinit.obj
 0002:00009f64       $unwind$_free_osfhnd       0000000180027f64     libucrt:osfinfo.obj
 0002:00009f78       $unwind$?append@?$basic_string@DU?$char_traits@D@std@@V?$allocator@D@2@@std@@QEAAAEAV12@AEBV12@_K1@Z 0000000180027f78     scrypt_common.obj
 0002:00009f88       $chain$0$?append@?$basic_string@DU?$char_traits@D@std@@V?$allocator@D@2@@std@@QEAAAEAV12@AEBV12@_K1@Z 0000000180027f88     scrypt_common.obj
 0002:00009f9c       $chain$1$?append@?$basic_string@DU?$char_traits@D@std@@V?$allocator@D@2@@std@@QEAAAEAV12@AEBV12@_K1@Z 0000000180027f9c     scrypt_common.obj
 0002:00009fac       $chain$2$?append@?$basic_string@DU?$char_traits@D@std@@V?$allocator@D@2@@std@@QEAAAEAV12@AEBV12@_K1@Z 0000000180027fac     scrypt_common.obj
 0002:00009fc0       $unwind$?_Copy@?$basic_string@DU?$char_traits@D@std@@V?$allocator@D@2@@std@@QEAAX_K0@Z 0000000180027fc0     scrypt_common.obj
 0002:00009fd4       $unwind$wcstol             0000000180027fd4     libucrt:strtox.obj
 0002:00009fd4       $unwind$??0length_error@std@@QEAA@PEBD@Z 0000000180027fd4     libcpmt:xthrow.obj
 0002:00009fd4       $unwind$??0out_of_range@std@@QEAA@PEBD@Z 0000000180027fd4     libcpmt:xthrow.obj
 0002:00009fd4       $unwind$strtol             0000000180027fd4     libucrt:strtox.obj
 0002:00009fd4       $unwind$??$common_xtox_s@K_W@@YAHKQEA_W_KI_N@Z 0000000180027fd4     libucrt:xtoa.obj
 0002:00009fd4       $unwind$?Execute@ScryptParamsAsyncWorker@@UEAAXXZ 0000000180027fd4     scrypt_params_async.obj
 0002:00009fd4       $unwind$??$?HDU?$char_traits@D@std@@V?$allocator@D@1@@std@@YA?AV?$basic_string@DU?$char_traits@D@std@@V?$allocator@D@2@@0@PEBD$$QEAV10@@Z 0000000180027fd4     scrypt_common.obj
 0002:00009fdc       $unwind$?insert@?$basic_string@DU?$char_traits@D@std@@V?$allocator@D@2@@std@@QEAAAEAV12@_KPEBD0@Z 0000000180027fdc     scrypt_common.obj
 0002:00009fec       $chain$0$?insert@?$basic_string@DU?$char_traits@D@std@@V?$allocator@D@2@@std@@QEAAAEAV12@_KPEBD0@Z 0000000180027fec     scrypt_common.obj
 0002:0000a000       $chain$1$?insert@?$basic_string@DU?$char_traits@D@std@@V?$allocator@D@2@@std@@QEAAAEAV12@_KPEBD0@Z 0000000180028000     scrypt_common.obj
 0002:0000a010       $chain$2$?insert@?$basic_string@DU?$char_traits@D@std@@V?$allocator@D@2@@std@@QEAAAEAV12@_KPEBD0@Z 0000000180028010     scrypt_common.obj
 0002:0000a024       $unwind$?insert@?$basic_string@DU?$char_traits@D@std@@V?$allocator@D@2@@std@@QEAAAEAV12@_KAEBV12@00@Z 0000000180028024     scrypt_common.obj
 0002:0000a034       $chain$0$?insert@?$basic_string@DU?$char_traits@D@std@@V?$allocator@D@2@@std@@QEAAAEAV12@_KAEBV12@00@Z 0000000180028034     scrypt_common.obj
 0002:0000a048       $chain$1$?insert@?$basic_string@DU?$char_traits@D@std@@V?$allocator@D@2@@std@@QEAAAEAV12@_KAEBV12@00@Z 0000000180028048     scrypt_common.obj
 0002:0000a05c       $chain$3$?insert@?$basic_string@DU?$char_traits@D@std@@V?$allocator@D@2@@std@@QEAAAEAV12@_KAEBV12@00@Z 000000018002805c     scrypt_common.obj
 0002:0000a06c       $chain$4$?insert@?$basic_string@DU?$char_traits@D@std@@V?$allocator@D@2@@std@@QEAAAEAV12@_KAEBV12@00@Z 000000018002806c     scrypt_common.obj
 0002:0000a080       $chain$5$?insert@?$basic_string@DU?$char_traits@D@std@@V?$allocator@D@2@@std@@QEAAAEAV12@_KAEBV12@00@Z 0000000180028080     scrypt_common.obj
 0002:0000a098       $unwind$?convert@?$ToFactory@VInteger@v8@@@imp@Nan@@SA?AV?$MaybeLocal@VInteger@v8@@@v8@@V?$Local@VValue@v8@@@5@@Z 0000000180028098     scrypt_params_async.obj
 0002:0000a0ac       $stateUnwindMap$?convert@?$ToFactory@VInteger@v8@@@imp@Nan@@SA?AV?$MaybeLocal@VInteger@v8@@@v8@@V?$Local@VValue@v8@@@5@@Z 00000001800280ac     scrypt_params_async.obj
 0002:0000a0ac       $stateUnwindMap$?NewInstance@Nan@@YA?AV?$MaybeLocal@VObject@v8@@@v8@@V?$Local@VObjectTemplate@v8@@@3@@Z 00000001800280ac     scrypt_node.obj
 0002:0000a0ac       $stateUnwindMap$?GetFunction@Nan@@YA?AV?$MaybeLocal@VFunction@v8@@@v8@@V?$Local@VFunctionTemplate@v8@@@3@@Z 00000001800280ac     scrypt_node.obj
 0002:0000a0b8       $ip2state$?convert@?$ToFactory@VInteger@v8@@@imp@Nan@@SA?AV?$MaybeLocal@VInteger@v8@@@v8@@V?$Local@VValue@v8@@@5@@Z 00000001800280b8     scrypt_params_async.obj
 0002:0000a0d0       $unwind$?Call@Callback@Nan@@QEBA?AV?$Local@VValue@v8@@@v8@@HQEAV34@@Z 00000001800280d0     scrypt_params_async.obj
 0002:0000a0ec       $stateUnwindMap$?Call@Callback@Nan@@QEBA?AV?$Local@VValue@v8@@@v8@@HQEAV34@@Z 00000001800280ec     scrypt_params_async.obj
 0002:0000a0f8       $ip2state$?Call@Callback@Nan@@QEBA?AV?$Local@VValue@v8@@@v8@@HQEAV34@@Z 00000001800280f8     scrypt_params_async.obj
 0002:0000a110       $unwind$?Call@Callback@Nan@@QEBA?AV?$MaybeLocal@VValue@v8@@@v8@@HQEAV?$Local@VValue@v8@@@4@PEAVAsyncResource@2@@Z 0000000180028110     scrypt_params_async.obj
 0002:0000a12c       $stateUnwindMap$?Call@Callback@Nan@@QEBA?AV?$MaybeLocal@VValue@v8@@@v8@@HQEAV?$Local@VValue@v8@@@4@PEAVAsyncResource@2@@Z 000000018002812c     scrypt_params_async.obj
 0002:0000a138       $ip2state$?Call@Callback@Nan@@QEBA?AV?$MaybeLocal@VValue@v8@@@v8@@HQEAV?$Local@VValue@v8@@@4@PEAVAsyncResource@2@@Z 0000000180028138     scrypt_params_async.obj
 0002:0000a150       $unwind$?Call_@Callback@Nan@@AEBA?AV?$Local@VValue@v8@@@v8@@PEAVIsolate@4@V?$Local@VObject@v8@@@4@HQEAV34@@Z 0000000180028150     scrypt_params_async.obj
 0002:0000a168       $ip2state$?Call_@Callback@Nan@@AEBA?AV?$Local@VValue@v8@@@v8@@PEAVIsolate@4@V?$Local@VObject@v8@@@4@HQEAV34@@Z 0000000180028168     scrypt_params_async.obj
 0002:0000a180       $unwind$??0AsyncWorker@Nan@@QEAA@PEAVCallback@1@PEBD@Z 0000000180028180     scrypt_params_async.obj
 0002:0000a194       $stateUnwindMap$??0AsyncWorker@Nan@@QEAA@PEAVCallback@1@PEBD@Z 0000000180028194     scrypt_params_async.obj
 0002:0000a1a8       $ip2state$??0AsyncWorker@Nan@@QEAA@PEAVCallback@1@PEBD@Z 00000001800281a8     scrypt_params_async.obj
 0002:0000a1d0       $unwind$??1AsyncWorker@Nan@@UEAA@XZ 00000001800281d0     scrypt_params_async.obj
 0002:0000a1e4       $stateUnwindMap$??1AsyncWorker@Nan@@UEAA@XZ 00000001800281e4     scrypt_params_async.obj
 0002:0000a1f8       $ip2state$??1AsyncWorker@Nan@@UEAA@XZ 00000001800281f8     scrypt_params_async.obj
 0002:0000a210       $unwind$?WorkComplete@AsyncWorker@Nan@@UEAAXXZ 0000000180028210     scrypt_params_async.obj
 0002:0000a224       $stateUnwindMap$?WorkComplete@AsyncWorker@Nan@@UEAAXXZ 0000000180028224     scrypt_params_async.obj
 0002:0000a240       $ip2state$?WorkComplete@AsyncWorker@Nan@@UEAAXXZ 0000000180028240     scrypt_params_async.obj
 0002:0000a268       $unwind$?HandleOKCallback@AsyncWorker@Nan@@MEAAXXZ 0000000180028268     scrypt_params_async.obj
 0002:0000a278       $ip2state$?HandleOKCallback@AsyncWorker@Nan@@MEAAXXZ 0000000180028278     scrypt_params_async.obj
 0002:0000a290       $unwind$?HandleErrorCallback@AsyncWorker@Nan@@MEAAXXZ 0000000180028290     scrypt_params_async.obj
 0002:0000a2a8       $ip2state$?HandleErrorCallback@AsyncWorker@Nan@@MEAAXXZ 00000001800282a8     scrypt_params_async.obj
 0002:0000a2c0       $unwind$??1?$Persistent@VObject@v8@@V?$NonCopyablePersistentTraits@VObject@v8@@@2@@Nan@@QEAA@XZ 00000001800282c0     scrypt_params_async.obj
 0002:0000a2d0       $stateUnwindMap$??1?$Persistent@VObject@v8@@V?$NonCopyablePersistentTraits@VObject@v8@@@2@@Nan@@QEAA@XZ 00000001800282d0     scrypt_params_async.obj
 0002:0000a2d8       $ip2state$??1?$Persistent@VObject@v8@@V?$NonCopyablePersistentTraits@VObject@v8@@@2@@Nan@@QEAA@XZ 00000001800282d8     scrypt_params_async.obj
 0002:0000a2e0       $unwind$?HandleErrorCallback@ScryptAsyncWorker@@UEAAXXZ 00000001800282e0     scrypt_params_async.obj
 0002:0000a2f0       $ip2state$?HandleErrorCallback@ScryptAsyncWorker@@UEAAXXZ 00000001800282f0     scrypt_params_async.obj
 0002:0000a308       $unwind$?WorkComplete@ScryptAsyncWorker@@UEAAXXZ 0000000180028308     scrypt_params_async.obj
 0002:0000a31c       $stateUnwindMap$?WorkComplete@ScryptAsyncWorker@@UEAAXXZ 000000018002831c     scrypt_params_async.obj
 0002:0000a340       $ip2state$?WorkComplete@ScryptAsyncWorker@@UEAAXXZ 0000000180028340     scrypt_params_async.obj
 0002:0000a378       $unwind$??0ScryptParamsAsyncWorker@@QEAA@AEBV?$FunctionCallbackInfo@VValue@v8@@@Nan@@@Z 0000000180028378     scrypt_params_async.obj
 0002:0000a390       $stateUnwindMap$??0ScryptParamsAsyncWorker@@QEAA@AEBV?$FunctionCallbackInfo@VValue@v8@@@Nan@@@Z 0000000180028390     scrypt_params_async.obj
 0002:0000a3a0       $ip2state$??0ScryptParamsAsyncWorker@@QEAA@AEBV?$FunctionCallbackInfo@VValue@v8@@@Nan@@@Z 00000001800283a0     scrypt_params_async.obj
 0002:0000a3c8       $unwind$?fin$0@?0???$common_lseek@_J@@YA_JH_JH@Z@4HA 00000001800283c8     libucrt:lseek.obj
 0002:0000a3c8       $unwind$?dtor$0@?0??kdfVerify@@YAXAEBV?$FunctionCallbackInfo@VValue@v8@@@Nan@@@Z@4HA 00000001800283c8     scrypt_kdf-verify_async.obj
 0002:0000a3c8       $unwind$?dtor$0@?0???0ScryptKDFVerifyAsyncWorker@@QEAA@AEBV?$FunctionCallbackInfo@VValue@v8@@@Nan@@@Z@4HA 00000001800283c8     scrypt_kdf-verify_async.obj
 0002:0000a3c8       $unwind$?filt$0@?0??common_exit@@YAXHW4_crt_exit_cleanup_mode@@W4_crt_exit_return_mode@@@Z@4HA 00000001800283c8     libucrt:exit.obj
 0002:0000a3c8       $unwind$_query_new_handler$fin$0 00000001800283c8     libucrt:new_handler.obj
 0002:0000a3c8       $unwind$?fin$1@?0??common_exit@@YAXHW4_crt_exit_cleanup_mode@@W4_crt_exit_return_mode@@@Z@4HA 00000001800283c8     libucrt:exit.obj
 0002:0000a3c8       $unwind$?dtor$0@?0??hash@@YAXAEBV?$FunctionCallbackInfo@VValue@v8@@@Nan@@@Z@4HA 00000001800283c8     scrypt_hash_async.obj
 0002:0000a3c8       $unwind$common_flush_all$fin$0 00000001800283c8     libucrt:fflush.obj
 0002:0000a3c8       $unwind$__acrt_lowio_ensure_fh_exists$fin$0 00000001800283c8     libucrt:osfinfo.obj
 0002:0000a3c8       $unwind$common_flush_all$fin$1 00000001800283c8     libucrt:fflush.obj
 0002:0000a3c8       $unwind$_IsNonwritableInCurrentImage$filt$0 00000001800283c8     LIBCMT:pesect.obj
 0002:0000a3c8       $unwind$common_control87$filt$0 00000001800283c8     libucrt:ieee.obj
 0002:0000a3c8       $unwind$?fin$0@?0???$?RV<lambda_bfedae4ebbf01fab1bb6dcc6a9e276e0>@@AEAV<lambda_2fe9b910cf3cbf4a0ab98a02ba45b3ec>@@V<lambda_237c231691f317818eb88cc1d5d642d6>@@@?$__crt_seh_guarded_call@H@@QEAAH$$QEAV<lambda_bfedae4ebbf01fab1bb6dcc6a9e276e0>@@AEAV<lambda_2fe9b910cf3cbf4a0ab98a02ba45b3ec>@@$$QEAV<lambda_237c231691f317818eb88cc1d5d642d6>@@@Z@4HA 00000001800283c8     libucrt:close.obj
 0002:0000a3c8       $unwind$__acrt_uninitialize_locale$fin$0 00000001800283c8     libucrt:wsetlocale.obj
 0002:0000a3c8       $unwind$?fin$0@?0???$?RV<lambda_b8c45f8f788dd370798f47cfe8ac3a86>@@AEAV<lambda_4e60a939b0d047cfe11ddc22648dfba9>@@V<lambda_332c3edc96d0294ec56c57d38c1cdfd5>@@@?$__crt_seh_guarded_call@H@@QEAAH$$QEAV<lambda_b8c45f8f788dd370798f47cfe8ac3a86>@@AEAV<lambda_4e60a939b0d047cfe11ddc22648dfba9>@@$$QEAV<lambda_332c3edc96d0294ec56c57d38c1cdfd5>@@@Z@4HA 00000001800283c8     libucrt:onexit.obj
 0002:0000a3c8       $unwind$__FrameUnwindToState$fin$1 00000001800283c8     libvcruntime:frame.obj
 0002:0000a3c8       $unwind$?fin$0@?0???$?RV<lambda_c36588078e9f5dfd39652860aa6b3aaf>@@AEAV<lambda_ec61778202f4f5fc7e7711acc23c3bca>@@V<lambda_dc9d2797ccde5d239b4a0efae8ebd7db>@@@?$__crt_seh_guarded_call@P6AXH@Z@@QEAAP6AXH@Z$$QEAV<lambda_c36588078e9f5dfd39652860aa6b3aaf>@@AEAV<lambda_ec61778202f4f5fc7e7711acc23c3bca>@@$$QEAV<lambda_dc9d2797ccde5d239b4a0efae8ebd7db>@@@Z@4HA 00000001800283c8     libucrt:signal.obj
 0002:0000a3c8       $unwind$?dtor$0@?0???0ScryptHashAsyncWorker@@QEAA@AEBV?$FunctionCallbackInfo@VValue@v8@@@Nan@@@Z@4HA 00000001800283c8     scrypt_hash_async.obj
 0002:0000a3c8       $unwind$?dtor$0@?0??kdf@@YAXAEBV?$FunctionCallbackInfo@VValue@v8@@@Nan@@@Z@4HA 00000001800283c8     scrypt_kdf_async.obj
 0002:0000a3c8       $unwind$?dtor$0@?0???0ScryptParamsAsyncWorker@@QEAA@AEBV?$FunctionCallbackInfo@VValue@v8@@@Nan@@@Z@4HA 00000001800283c8     scrypt_params_async.obj
 0002:0000a3c8       $unwind$?fin$0@?0???$?RV<lambda_fb3a7dec4e47f37f22dae91bb15c9095>@@AEAV<lambda_698284760c8add0bfb0756c19673e34b>@@V<lambda_dfb8eca1e75fef3034a8fb18dd509707>@@@?$__crt_seh_guarded_call@X@@QEAAX$$QEAV<lambda_fb3a7dec4e47f37f22dae91bb15c9095>@@AEAV<lambda_698284760c8add0bfb0756c19673e34b>@@$$QEAV<lambda_dfb8eca1e75fef3034a8fb18dd509707>@@@Z@4HA 00000001800283c8     libucrt:per_thread_data.obj
 0002:0000a3c8       $unwind$?fin$0@?0??dllmain_crt_process_attach@@YAHQEAUHINSTANCE__@@QEAX@Z@4HA 00000001800283c8     LIBCMT:dll_dllmain.obj
 0002:0000a3c8       $unwind$?fin$0@?0???$?RV<lambda_aa279a7bcb127014629d5b1d62c7325d>@@AEAV<lambda_0a64b6a4deda75c01876f29c44fc5eb3>@@V<lambda_3323e69fbefe9d1a11713e670d47cdfa>@@@?$__crt_seh_guarded_call@H@@QEAAH$$QEAV<lambda_aa279a7bcb127014629d5b1d62c7325d>@@AEAV<lambda_0a64b6a4deda75c01876f29c44fc5eb3>@@$$QEAV<lambda_3323e69fbefe9d1a11713e670d47cdfa>@@@Z@4HA 00000001800283c8     libucrt:output.obj
 0002:0000a3c8       $unwind$__FrameUnwindToState$filt$0 00000001800283c8     libvcruntime:frame.obj
 0002:0000a3c8       $unwind$?fin$0@?0???$?RV<lambda_46352004c1216016012b18bd6f87e700>@@AEAV<lambda_3bd07e1a1191394380780325891bf33f>@@V<lambda_334532d3f185bcaa59b5be82d7d22bff>@@@?$__crt_seh_guarded_call@X@@QEAAX$$QEAV<lambda_46352004c1216016012b18bd6f87e700>@@AEAV<lambda_3bd07e1a1191394380780325891bf33f>@@$$QEAV<lambda_334532d3f185bcaa59b5be82d7d22bff>@@@Z@4HA 00000001800283c8     libucrt:per_thread_data.obj
 0002:0000a3c8       $unwind$?fin$0@?0???$?RV<lambda_7b91131dde12e1c3dfc74ff76b3f2eac>@@AEAV<lambda_dd75445284c072d0bd3768540cc698fa>@@V<lambda_16bc4ecb55b4718497c16bceaea2ceaf>@@@?$__crt_seh_guarded_call@H@@QEAAH$$QEAV<lambda_7b91131dde12e1c3dfc74ff76b3f2eac>@@AEAV<lambda_dd75445284c072d0bd3768540cc698fa>@@$$QEAV<lambda_16bc4ecb55b4718497c16bceaea2ceaf>@@@Z@4HA 00000001800283c8     libucrt:output.obj
 0002:0000a3c8       $unwind$__DestructExceptionObject$filt$0 00000001800283c8     libvcruntime:frame.obj
 0002:0000a3c8       $unwind$_fcloseall$fin$0   00000001800283c8     libucrt:closeall.obj
 0002:0000a3c8       $unwind$__acrt_initialize_lowio$fin$0 00000001800283c8     libucrt:ioinit.obj
 0002:0000a3c8       $unwind$raise$fin$0        00000001800283c8     libucrt:signal.obj
 0002:0000a3c8       $unwind$?dtor$0@?0??params@@YAXAEBV?$FunctionCallbackInfo@VValue@v8@@@Nan@@@Z@4HA 00000001800283c8     scrypt_params_async.obj
 0002:0000a3c8       $unwind$__acrt_update_thread_locale_data$fin$0 00000001800283c8     libucrt:locale_refcounting.obj
 0002:0000a3c8       $unwind$_write$fin$0       00000001800283c8     libucrt:write.obj
 0002:0000a3c8       $unwind$?fin$0@?0??dllmain_crt_process_detach@@YAH_N@Z@4HA 00000001800283c8     LIBCMT:dll_dllmain.obj
 0002:0000a3c8       $unwind$?fin$0@?0???$?RV<lambda_99476a1ad63dd22509b5d3e65b0ffc95>@@AEAV<lambda_ad1ced32f4ac17aa236e5ef05d6b3b7c>@@V<lambda_f7424dd8d45958661754dc4f2697e9c3>@@@?$__crt_seh_guarded_call@X@@QEAAX$$QEAV<lambda_99476a1ad63dd22509b5d3e65b0ffc95>@@AEAV<lambda_ad1ced32f4ac17aa236e5ef05d6b3b7c>@@$$QEAV<lambda_f7424dd8d45958661754dc4f2697e9c3>@@@Z@4HA 00000001800283c8     libucrt:mbctype.obj
 0002:0000a3c8       $unwind$?dtor$0@?0???0ScryptKDFAsyncWorker@@QEAA@AEBV?$FunctionCallbackInfo@VValue@v8@@@Nan@@@Z@4HA 00000001800283c8     scrypt_kdf_async.obj
 0002:0000a3c8       $unwind$__CxxCallCatchBlock$filt$0 00000001800283c8     libvcruntime:frame.obj
 0002:0000a3c8       $unwind$?fin$0@?0???$?RV<lambda_7a5ef57ff966f610505f1d28a3d40618>@@AEAV<lambda_b721fa326cdb32351d23dfa67958c160>@@V<lambda_5e0fb27672408a07956fe59e48ccb2aa>@@@?$__crt_seh_guarded_call@H@@QEAAH$$QEAV<lambda_7a5ef57ff966f610505f1d28a3d40618>@@AEAV<lambda_b721fa326cdb32351d23dfa67958c160>@@$$QEAV<lambda_5e0fb27672408a07956fe59e48ccb2aa>@@@Z@4HA 00000001800283c8     libucrt:setvbuf.obj
 0002:0000a3c8       $unwind$?fin$0@?0???$?RV<lambda_b521505b218e5242e90febf6bfebc422>@@AEAV<lambda_6978c1fb23f02e42e1d9e99668cc68aa>@@V<lambda_314360699dd331753a4119843814e9a7>@@@?$__crt_seh_guarded_call@H@@QEAAH$$QEAV<lambda_b521505b218e5242e90febf6bfebc422>@@AEAV<lambda_6978c1fb23f02e42e1d9e99668cc68aa>@@$$QEAV<lambda_314360699dd331753a4119843814e9a7>@@@Z@4HA 00000001800283c8     libucrt:commit.obj
 0002:0000a3c8       $unwind$?fin$0@?0???$?RV<lambda_72d1df2b273a38828b1ce30cbf4cdab5>@@AEAV<lambda_876a65b173b8412d3a47c70a915b0cf4>@@V<lambda_41932305e351933ebe8f8be3ed8bb5dc>@@@?$__crt_seh_guarded_call@X@@QEAAX$$QEAV<lambda_72d1df2b273a38828b1ce30cbf4cdab5>@@AEAV<lambda_876a65b173b8412d3a47c70a915b0cf4>@@$$QEAV<lambda_41932305e351933ebe8f8be3ed8bb5dc>@@@Z@4HA 00000001800283c8     libucrt:per_thread_data.obj
 0002:0000a3c8       $unwind$?fin$0@?0???$?RV<lambda_5e887d1dcbef67a5eb4283622ba103bf>@@AEAV<lambda_4466841279450cc726390878d4a41900>@@V<lambda_341c25c0346d94847f1f3c463c57e077>@@@?$__crt_seh_guarded_call@X@@QEAAX$$QEAV<lambda_5e887d1dcbef67a5eb4283622ba103bf>@@AEAV<lambda_4466841279450cc726390878d4a41900>@@$$QEAV<lambda_341c25c0346d94847f1f3c463c57e077>@@@Z@4HA 00000001800283c8     libucrt:per_thread_data.obj
 0002:0000a3c8       $unwind$__acrt_update_thread_multibyte_data$fin$0 00000001800283c8     libucrt:mbctype.obj
 0002:0000a3c8       $unwind$fflush$fin$0       00000001800283c8     libucrt:fflush.obj
 0002:0000a3c8       $unwind$fclose$fin$0       00000001800283c8     libucrt:fclose.obj
 0002:0000a3c8       $unwind$_ctrlfp$filt$0     00000001800283c8     libucrt:fpctrl.obj
 0002:0000a3c8       $unwind$?fin$0@?0???$?RV<lambda_e24bbb7b643b32fcea6fa61b31d4c984>@@AEAV<lambda_275893d493268fdec8709772e3fcec0e>@@V<lambda_9d71df4d7cf3f480f8d633942495c3b0>@@@?$__crt_seh_guarded_call@H@@QEAAH$$QEAV<lambda_e24bbb7b643b32fcea6fa61b31d4c984>@@AEAV<lambda_275893d493268fdec8709772e3fcec0e>@@$$QEAV<lambda_9d71df4d7cf3f480f8d633942495c3b0>@@@Z@4HA 00000001800283c8     libucrt:onexit.obj
 0002:0000a3d0       $unwind$?HandleOKCallback@ScryptParamsAsyncWorker@@UEAAXXZ 00000001800283d0     scrypt_params_async.obj
 0002:0000a3e4       $stateUnwindMap$?HandleOKCallback@ScryptHashAsyncWorker@@UEAAXXZ 00000001800283e4     scrypt_hash_async.obj
 0002:0000a3e4       $stateUnwindMap$?HandleOKCallback@ScryptKDFAsyncWorker@@UEAAXXZ 00000001800283e4     scrypt_kdf_async.obj
 0002:0000a3e4       $stateUnwindMap$?HandleOKCallback@ScryptParamsAsyncWorker@@UEAAXXZ 00000001800283e4     scrypt_params_async.obj
 0002:0000a3f0       $ip2state$?HandleOKCallback@ScryptParamsAsyncWorker@@UEAAXXZ 00000001800283f0     scrypt_params_async.obj
 0002:0000a408       $unwind$?params@@YAXAEBV?$FunctionCallbackInfo@VValue@v8@@@Nan@@@Z 0000000180028408     scrypt_params_async.obj
 0002:0000a418       $stateUnwindMap$?kdf@@YAXAEBV?$FunctionCallbackInfo@VValue@v8@@@Nan@@@Z 0000000180028418     scrypt_kdf_async.obj
 0002:0000a418       $stateUnwindMap$?params@@YAXAEBV?$FunctionCallbackInfo@VValue@v8@@@Nan@@@Z 0000000180028418     scrypt_params_async.obj
 0002:0000a420       $ip2state$?params@@YAXAEBV?$FunctionCallbackInfo@VValue@v8@@@Nan@@@Z 0000000180028420     scrypt_params_async.obj
 0002:0000a438       $unwind$?paramsSync@@YAXAEBV?$FunctionCallbackInfo@VValue@v8@@@Nan@@@Z 0000000180028438     scrypt_params_sync.obj
 0002:0000a44c       $unwind$?GetFromPersistent@AsyncWorker@Nan@@QEBA?AV?$Local@VValue@v8@@@v8@@PEBD@Z 000000018002844c     scrypt_kdf_async.obj
 0002:0000a468       $ip2state$?GetFromPersistent@AsyncWorker@Nan@@QEBA?AV?$Local@VValue@v8@@@v8@@PEBD@Z 0000000180028468     scrypt_kdf_async.obj
 0002:0000a480       $unwind$??0Params@NodeScrypt@@QEAA@AEBV?$Local@VObject@v8@@@v8@@@Z 0000000180028480     scrypt_kdf_async.obj
 0002:0000a48c       $unwind$??0ScryptKDFAsyncWorker@@QEAA@AEBV?$FunctionCallbackInfo@VValue@v8@@@Nan@@@Z 000000018002848c     scrypt_kdf_async.obj
 0002:0000a4a8       $stateUnwindMap$??0ScryptHashAsyncWorker@@QEAA@AEBV?$FunctionCallbackInfo@VValue@v8@@@Nan@@@Z 00000001800284a8     scrypt_hash_async.obj
 0002:0000a4a8       $stateUnwindMap$??0ScryptKDFAsyncWorker@@QEAA@AEBV?$FunctionCallbackInfo@VValue@v8@@@Nan@@@Z 00000001800284a8     scrypt_kdf_async.obj
 0002:0000a4a8       $stateUnwindMap$??0ScryptKDFVerifyAsyncWorker@@QEAA@AEBV?$FunctionCallbackInfo@VValue@v8@@@Nan@@@Z 00000001800284a8     scrypt_kdf-verify_async.obj
 0002:0000a4c0       $ip2state$??0ScryptKDFAsyncWorker@@QEAA@AEBV?$FunctionCallbackInfo@VValue@v8@@@Nan@@@Z 00000001800284c0     scrypt_kdf_async.obj
 0002:0000a4f8       $unwind$isdigit            00000001800284f8     libucrt:_ctype.obj
 0002:0000a4f8       $unwind$?Execute@ScryptKDFAsyncWorker@@UEAAXXZ 00000001800284f8     scrypt_kdf_async.obj
 0002:0000a4f8       $unwind$?getSystemCP@@YAHH@Z 00000001800284f8     libucrt:mbctype.obj
 0002:0000a4f8       $unwind$_isleadbyte_l      00000001800284f8     libucrt:_wctype.obj
 0002:0000a500       $unwind$?HandleOKCallback@ScryptKDFAsyncWorker@@UEAAXXZ 0000000180028500     scrypt_kdf_async.obj
 0002:0000a518       $ip2state$?HandleOKCallback@ScryptKDFAsyncWorker@@UEAAXXZ 0000000180028518     scrypt_kdf_async.obj
 0002:0000a530       $unwind$?kdf@@YAXAEBV?$FunctionCallbackInfo@VValue@v8@@@Nan@@@Z 0000000180028530     scrypt_kdf_async.obj
 0002:0000a540       $ip2state$?kdf@@YAXAEBV?$FunctionCallbackInfo@VValue@v8@@@Nan@@@Z 0000000180028540     scrypt_kdf_async.obj
 0002:0000a558       $unwind$?kdfSync@@YAXAEBV?$FunctionCallbackInfo@VValue@v8@@@Nan@@@Z 0000000180028558     scrypt_kdf_sync.obj
 0002:0000a568       $unwind$?kdfVerifySync@@YAXAEBV?$FunctionCallbackInfo@VValue@v8@@@Nan@@@Z 0000000180028568     scrypt_kdf-verify_sync.obj
 0002:0000a578       $unwind$??0ScryptKDFVerifyAsyncWorker@@QEAA@AEBV?$FunctionCallbackInfo@VValue@v8@@@Nan@@@Z 0000000180028578     scrypt_kdf-verify_async.obj
 0002:0000a590       $ip2state$??0ScryptKDFVerifyAsyncWorker@@QEAA@AEBV?$FunctionCallbackInfo@VValue@v8@@@Nan@@@Z 0000000180028590     scrypt_kdf-verify_async.obj
 0002:0000a5c8       $unwind$?HandleOKCallback@ScryptKDFVerifyAsyncWorker@@UEAAXXZ 00000001800285c8     scrypt_kdf-verify_async.obj
 0002:0000a5d8       $ip2state$?HandleOKCallback@ScryptKDFVerifyAsyncWorker@@UEAAXXZ 00000001800285d8     scrypt_kdf-verify_async.obj
 0002:0000a5f0       $unwind$?kdfVerify@@YAXAEBV?$FunctionCallbackInfo@VValue@v8@@@Nan@@@Z 00000001800285f0     scrypt_kdf-verify_async.obj
 0002:0000a600       $stateUnwindMap$?kdfVerify@@YAXAEBV?$FunctionCallbackInfo@VValue@v8@@@Nan@@@Z 0000000180028600     scrypt_kdf-verify_async.obj
 0002:0000a608       $ip2state$?kdfVerify@@YAXAEBV?$FunctionCallbackInfo@VValue@v8@@@Nan@@@Z 0000000180028608     scrypt_kdf-verify_async.obj
 0002:0000a620       $unwind$?hashSync@@YAXAEBV?$FunctionCallbackInfo@VValue@v8@@@Nan@@@Z 0000000180028620     scrypt_hash_sync.obj
 0002:0000a638       $unwind$??0ScryptHashAsyncWorker@@QEAA@AEBV?$FunctionCallbackInfo@VValue@v8@@@Nan@@@Z 0000000180028638     scrypt_hash_async.obj
 0002:0000a658       $ip2state$??0ScryptHashAsyncWorker@@QEAA@AEBV?$FunctionCallbackInfo@VValue@v8@@@Nan@@@Z 0000000180028658     scrypt_hash_async.obj
 0002:0000a690       $unwind$?Execute@ScryptHashAsyncWorker@@UEAAXXZ 0000000180028690     scrypt_hash_async.obj
 0002:0000a6a0       $unwind$?HandleOKCallback@ScryptHashAsyncWorker@@UEAAXXZ 00000001800286a0     scrypt_hash_async.obj
 0002:0000a6b8       $ip2state$?HandleOKCallback@ScryptHashAsyncWorker@@UEAAXXZ 00000001800286b8     scrypt_hash_async.obj
 0002:0000a6d0       $unwind$?hash@@YAXAEBV?$FunctionCallbackInfo@VValue@v8@@@Nan@@@Z 00000001800286d0     scrypt_hash_async.obj
 0002:0000a6e0       $stateUnwindMap$?hash@@YAXAEBV?$FunctionCallbackInfo@VValue@v8@@@Nan@@@Z 00000001800286e0     scrypt_hash_async.obj
 0002:0000a6e8       $ip2state$?hash@@YAXAEBV?$FunctionCallbackInfo@VValue@v8@@@Nan@@@Z 00000001800286e8     scrypt_hash_async.obj
 0002:0000a700       $unwind$?FunctionCallbackWrapper@imp@Nan@@YAXAEBV?$FunctionCallbackInfo@VValue@v8@@@v8@@@Z 0000000180028700     scrypt_node.obj
 0002:0000a710       $unwind$?NewInstance@Nan@@YA?AV?$MaybeLocal@VObject@v8@@@v8@@V?$Local@VObjectTemplate@v8@@@3@@Z 0000000180028710     scrypt_node.obj
 0002:0000a728       $ip2state$?NewInstance@Nan@@YA?AV?$MaybeLocal@VObject@v8@@@v8@@V?$Local@VObjectTemplate@v8@@@3@@Z 0000000180028728     scrypt_node.obj
 0002:0000a740       $unwind$?GetFunction@Nan@@YA?AV?$MaybeLocal@VFunction@v8@@@v8@@V?$Local@VFunctionTemplate@v8@@@3@@Z 0000000180028740     scrypt_node.obj
 0002:0000a758       $ip2state$?GetFunction@Nan@@YA?AV?$MaybeLocal@VFunction@v8@@@v8@@V?$Local@VFunctionTemplate@v8@@@3@@Z 0000000180028758     scrypt_node.obj
 0002:0000a770       $unwind$?Set@Nan@@YA?AV?$Maybe@_N@v8@@V?$Local@VObject@v8@@@3@V?$Local@VValue@v8@@@3@1@Z 0000000180028770     scrypt_node.obj
 0002:0000a784       $stateUnwindMap$?Set@Nan@@YA?AV?$Maybe@_N@v8@@V?$Local@VObject@v8@@@3@V?$Local@VValue@v8@@@3@1@Z 0000000180028784     scrypt_node.obj
 0002:0000a790       $ip2state$?Set@Nan@@YA?AV?$Maybe@_N@v8@@V?$Local@VObject@v8@@@3@V?$Local@VValue@v8@@@3@1@Z 0000000180028790     scrypt_node.obj
 0002:0000a7a8       $unwind$?New@?$Factory@VFunctionTemplate@v8@@@imp@Nan@@SA?AV?$Local@VFunctionTemplate@v8@@@v8@@P6AXAEBV?$FunctionCallbackInfo@VValue@v8@@@3@@ZV?$Local@VValue@v8@@@5@V?$Local@VSignature@v8@@@5@@Z 00000001800287a8     scrypt_node.obj
 0002:0000a7c0       $stateUnwindMap$?New@?$Factory@VFunctionTemplate@v8@@@imp@Nan@@SA?AV?$Local@VFunctionTemplate@v8@@@v8@@P6AXAEBV?$FunctionCallbackInfo@VValue@v8@@@3@@ZV?$Local@VValue@v8@@@5@V?$Local@VSignature@v8@@@5@@Z 00000001800287c0     scrypt_node.obj
 0002:0000a7c8       $ip2state$?New@?$Factory@VFunctionTemplate@v8@@@imp@Nan@@SA?AV?$Local@VFunctionTemplate@v8@@@v8@@P6AXAEBV?$FunctionCallbackInfo@VValue@v8@@@3@@ZV?$Local@VValue@v8@@@5@V?$Local@VSignature@v8@@@5@@Z 00000001800287c8     scrypt_node.obj
 0002:0000a7e0       $unwind$?InitAll@@YAXV?$Local@VObject@v8@@@v8@@@Z 00000001800287e0     scrypt_node.obj
 0002:0000a7ec       $unwind$pickparams         00000001800287ec     scrypt_wrapper:pickparams.obj
 0002:0000a800       $unwind$KDF                0000000180028800     scrypt_wrapper:keyderivation.obj
 0002:0000a81c       $chain$2$KDF               000000018002881c     scrypt_wrapper:keyderivation.obj
 0002:0000a838       $chain$3$KDF               0000000180028838     scrypt_wrapper:keyderivation.obj
 0002:0000a848       $unwind$Verify             0000000180028848     scrypt_wrapper:keyderivation.obj
 0002:0000a868       $chain$0$Verify            0000000180028868     scrypt_wrapper:keyderivation.obj
 0002:0000a87c       $chain$1$Verify            000000018002887c     scrypt_wrapper:keyderivation.obj
 0002:0000a87c       $chain$3$Verify            000000018002887c     scrypt_wrapper:keyderivation.obj
 0002:0000a88c       $chain$2$Verify            000000018002888c     scrypt_wrapper:keyderivation.obj
 0002:0000a8a0       $unwind$scryptenc_cpuperf  00000001800288a0     scrypt_lib:scryptenc_cpuperf.obj
 0002:0000a8cc       $unwind$SHA256_Transform   00000001800288cc     scrypt_lib:sha256.obj
 0002:0000a8f4       $unwind$SHA256_Pad         00000001800288f4     scrypt_lib:sha256.obj
 0002:0000a910       $chain$2$SHA256_Pad        0000000180028910     scrypt_lib:sha256.obj
 0002:0000a924       $chain$3$SHA256_Pad        0000000180028924     scrypt_lib:sha256.obj
 0002:0000a934       $unwind$?parse_int_from_format_string@?$output_processor@_WV?$stream_output_adapter@_W@__crt_stdio_output@@V?$standard_base@_WV?$stream_output_adapter@_W@__crt_stdio_output@@@2@@__crt_stdio_output@@AEAA_NQEAH@Z 0000000180028934     libucrt:output.obj
 0002:0000a934       $unwind$libcperciva_SHA256_Update 0000000180028934     scrypt_lib:sha256.obj
 0002:0000a934       $unwind$?parse_int_from_format_string@?$output_processor@_WV?$string_output_adapter@_W@__crt_stdio_output@@V?$standard_base@_WV?$string_output_adapter@_W@__crt_stdio_output@@@2@@__crt_stdio_output@@AEAA_NQEAH@Z 0000000180028934     libucrt:output.obj
 0002:0000a948       $chain$0$libcperciva_SHA256_Update 0000000180028948     scrypt_lib:sha256.obj
 0002:0000a95c       $chain$1$libcperciva_SHA256_Update 000000018002895c     scrypt_lib:sha256.obj
 0002:0000a96c       $unwind$libcperciva_HMAC_SHA256_Init 000000018002896c     scrypt_lib:sha256.obj
 0002:0000a988       $chain$0$libcperciva_HMAC_SHA256_Init 0000000180028988     scrypt_lib:sha256.obj
 0002:0000a99c       $chain$1$libcperciva_HMAC_SHA256_Init 000000018002899c     scrypt_lib:sha256.obj
 0002:0000a9ac       $unwind$libcperciva_HMAC_SHA256_Final 00000001800289ac     scrypt_lib:sha256.obj
 0002:0000a9c0       $chain$2$libcperciva_HMAC_SHA256_Final 00000001800289c0     scrypt_lib:sha256.obj
 0002:0000a9dc       $chain$3$libcperciva_HMAC_SHA256_Final 00000001800289dc     scrypt_lib:sha256.obj
 0002:0000a9ec       $unwind$PBKDF2_SHA256      00000001800289ec     scrypt_lib:sha256.obj
 0002:0000aa0c       $unwind$_crypto_scrypt     0000000180028a0c     scrypt_lib:crypto_scrypt.obj
 0002:0000aa24       $unwind$testsmix           0000000180028a24     scrypt_lib:crypto_scrypt.obj
 0002:0000aa34       $unwind$?fp_format_e@@YAHQEBNQEAD_K12H_NIQEAU__crt_locale_pointers@@@Z 0000000180028a34     libucrt:cvt.obj
 0002:0000aa34       $unwind$crypto_scrypt      0000000180028a34     scrypt_lib:crypto_scrypt.obj
 0002:0000aa48       $unwind$fwprintf           0000000180028a48     libucrt:assert.obj
 0002:0000aa48       $unwind$fprintf            0000000180028a48     scrypt_lib:warnp.obj
 0002:0000aa54       $unwind$libcperciva_warnx  0000000180028a54     scrypt_lib:warnp.obj
 0002:0000aa60       $chain$0$libcperciva_warnx 0000000180028a60     scrypt_lib:warnp.obj
 0002:0000aa74       $chain$1$libcperciva_warnx 0000000180028a74     scrypt_lib:warnp.obj
 0002:0000aa84       $unwind$salsa20_8          0000000180028a84     scrypt_lib:crypto_scrypt_smix.obj
 0002:0000aaa8       $unwind$blockmix_salsa8    0000000180028aa8     scrypt_lib:crypto_scrypt_smix.obj
 0002:0000aab4       $chain$4$blockmix_salsa8   0000000180028ab4     scrypt_lib:crypto_scrypt_smix.obj
 0002:0000aad8       $chain$5$blockmix_salsa8   0000000180028ad8     scrypt_lib:crypto_scrypt_smix.obj
 0002:0000aae8       $unwind$crypto_scrypt_smix 0000000180028ae8     scrypt_lib:crypto_scrypt_smix.obj
 0002:0000aaf4       $chain$5$crypto_scrypt_smix 0000000180028af4     scrypt_lib:crypto_scrypt_smix.obj
 0002:0000ab1c       $chain$6$crypto_scrypt_smix 0000000180028b1c     scrypt_lib:crypto_scrypt_smix.obj
 0002:0000ab30       $xdatasym                  0000000180028b30     LIBCMT:_amdsecgs_.obj
 0002:0000ab34       $unwind$?dllmain_crt_process_attach@@YAHQEAUHINSTANCE__@@QEAX@Z 0000000180028b34     LIBCMT:dll_dllmain.obj
 0002:0000ab60       $unwind$?dllmain_crt_process_detach@@YAH_N@Z 0000000180028b60     LIBCMT:dll_dllmain.obj
 0002:0000ab88       $unwind$?dllmain_dispatch@@YAHQEAUHINSTANCE__@@KQEAX@Z 0000000180028b88     LIBCMT:dll_dllmain.obj
 0002:0000abb0       $unwind$?filt$0@?0??dllmain_dispatch@@YAHQEAUHINSTANCE__@@KQEAX@Z@4HA 0000000180028bb0     LIBCMT:dll_dllmain.obj
 0002:0000abb8       $unwind$__scrt_is_nonwritable_in_current_image 0000000180028bb8     LIBCMT:utility.obj
 0002:0000abd8       $unwind$__scrt_is_nonwritable_in_current_image$filt$0 0000000180028bd8     LIBCMT:utility.obj
 0002:0000abe0       $unwind$__scrt_initialize_onexit_tables 0000000180028be0     LIBCMT:utility.obj
 0002:0000abec       $unwind$__report_securityfailure 0000000180028bec     LIBCMT:gs_report.obj
 0002:0000abf4       $unwind$_putwch_nolock     0000000180028bf4     libucrt:putwch.obj
 0002:0000abf4       $unwind$__report_gsfailure 0000000180028bf4     LIBCMT:gs_report.obj
 0002:0000abfc       $unwind$capture_current_context 0000000180028bfc     LIBCMT:gs_report.obj
 0002:0000ac08       $unwind$capture_previous_context 0000000180028c08     LIBCMT:gs_report.obj
 0002:0000ac14       $unwind$__security_init_cookie 0000000180028c14     LIBCMT:gs_support.obj
 0002:0000ac20       $unwind$__scrt_fastfail    0000000180028c20     LIBCMT:utility_desktop.obj
 0002:0000ac30       $unwind$__isa_available_init 0000000180028c30     LIBCMT:_cpu_disp_.obj
 0002:0000ac40       $xdatasym                  0000000180028c40     LIBCMT:_guard_dispatch_.obj
 0002:0000ac48       $xdatasym                  0000000180028c48     libvcruntime:memcpy.obj
 0002:0000ac4c       $unwind$__CxxCallCatchBlock 0000000180028c4c     libvcruntime:frame.obj
 0002:0000ac88       $unwind$__CxxCallCatchBlock$fin$1 0000000180028c88     libvcruntime:frame.obj
 0002:0000ac94       $unwind$__FrameUnwindToState 0000000180028c94     libvcruntime:frame.obj
 0002:0000acd0       $unwind$?FindHandler@@YAXPEAUEHExceptionRecord@@PEA_KPEAU_CONTEXT@@PEAU_xDISPATCHER_CONTEXT@@PEBU_s_FuncInfo@@EH1@Z 0000000180028cd0     libvcruntime:frame.obj
 0002:0000acf0       $unwind$?CatchIt@@YAXPEAUEHExceptionRecord@@PEA_KPEAU_CONTEXT@@PEAU_xDISPATCHER_CONTEXT@@PEBU_s_FuncInfo@@PEBU_s_HandlerType@@PEBU_s_CatchableType@@PEBU_s_TryBlockMapEntry@@H1EE@Z 0000000180028cf0     libvcruntime:frame.obj
 0002:0000ad08       $unwind$__BuildCatchObject 0000000180028d08     libvcruntime:frame.obj
 0002:0000ad34       $unwind$?FindHandlerForForeignException@@YAXPEAUEHExceptionRecord@@PEA_KPEAU_CONTEXT@@PEAU_xDISPATCHER_CONTEXT@@PEBU_s_FuncInfo@@HH1@Z 0000000180028d34     libvcruntime:frame.obj
 0002:0000ad4c       $unwind$__DestructExceptionObject 0000000180028d4c     libvcruntime:frame.obj
 0002:0000ad70       $unwind$__InternalCxxFrameHandler 0000000180028d70     libvcruntime:frame.obj
 0002:0000ad70       $unwind$__C_specific_handler 0000000180028d70     libvcruntime:_chandler_.obj
 0002:0000ad8c       $unwind$__BuildCatchObjectHelper 0000000180028d8c     libvcruntime:frame.obj
 0002:0000adcc       $unwind$_CxxThrowException 0000000180028dcc     libvcruntime:throw.obj
 0002:0000ade0       $xdatasym                  0000000180028de0     libvcruntime:memset.obj
 0002:0000ade8       $xdatasym                  0000000180028de8     libvcruntime:handlers.obj
 0002:0000adf0       $unwind$?_GetEstablisherFrame@@YAPEA_KPEA_KPEAU_xDISPATCHER_CONTEXT@@PEBU_s_FuncInfo@@0@Z 0000000180028df0     libvcruntime:trnsctrl.obj
 0002:0000ae08       $unwind$?__FrameUnwindToEmptyState@@YAXPEA_KPEAU_xDISPATCHER_CONTEXT@@PEBU_s_FuncInfo@@@Z 0000000180028e08     libvcruntime:trnsctrl.obj
 0002:0000ae1c       $unwind$_CallSETranslator  0000000180028e1c     libvcruntime:trnsctrl.obj
 0002:0000ae40       $unwind$_CallSETranslator$filt$0 0000000180028e40     libvcruntime:trnsctrl.obj
 0002:0000ae48       $unwind$_UnwindNestedFrames 0000000180028e48     libvcruntime:trnsctrl.obj
 0002:0000ae5c       $unwind$__CxxFrameHandler3 0000000180028e5c     libvcruntime:trnsctrl.obj
 0002:0000ae6c       $unwind$?__SehTransFilter@@YAHPEAU_EXCEPTION_POINTERS@@PEAUEHExceptionRecord@@PEA_KPEAU_CONTEXT@@PEAU_xDISPATCHER_CONTEXT@@PEBU_s_FuncInfo@@PEAH@Z 0000000180028e6c     libvcruntime:trnsctrl.obj
 0002:0000ae80       $xdatasym                  0000000180028e80     libvcruntime:_jmpuwind_.obj
 0002:0000ae94       $unwind$?write_string@?$string_output_adapter@_W@__crt_stdio_output@@QEBAXQEB_WHQEAH1@Z 0000000180028e94     libucrt:output.obj
 0002:0000ae94       $unwind$?try_get_function@@YAPEAXW4function_id@?A0x679b24ab@@QEBDQEBW4module_id@2@2@Z 0000000180028e94     libvcruntime:winapi_downlevel.obj
 0002:0000ae94       $unwind$?try_get_function@@YAPEAXW4function_id@?A0x63058377@@QEBDQEBW4module_id@2@2@Z 0000000180028e94     libucrt:winapi_thunks.obj
 0002:0000ae94       $unwind$?IsInExceptionSpec@@YAEPEAUEHExceptionRecord@@PEBU_s_ESTypeList@@@Z 0000000180028e94     libvcruntime:frame.obj
 0002:0000aeb0       $unwind$strerror           0000000180028eb0     libucrt:strerror.obj
 0002:0000aebc       $unwind$_invalid_parameter_noinfo_noreturn 0000000180028ebc     libucrt:invalid_parameter.obj
 0002:0000aebc       $unwind$_itow_s            0000000180028ebc     libucrt:xtoa.obj
 0002:0000aebc       $unwind$wctomb_s           0000000180028ebc     libucrt:wctomb.obj
 0002:0000aebc       $unwind$_invalid_parameter_noinfo 0000000180028ebc     libucrt:invalid_parameter.obj
 0002:0000aebc       $unwind$_log10_special     0000000180028ebc     libucrt:log_special.obj
 0002:0000aec4       $unwind$__acrt_call_reportfault 0000000180028ec4     libucrt:invalid_parameter.obj
 0002:0000aee4       $unwind$_invalid_parameter 0000000180028ee4     libucrt:invalid_parameter.obj
 0002:0000aefc       $unwind$swprintf           0000000180028efc     libucrt:assert.obj
 0002:0000af0c       $unwind$??$common_assert_to_stderr@_W@@YAXQEB_W0I@Z 0000000180028f0c     libucrt:assert.obj
 0002:0000af28       $unwind$??$common_assert_to_message_box@_W@@YAXQEB_W0IQEAX@Z 0000000180028f28     libucrt:assert.obj
 0002:0000af44       $unwind$??$common_assert_to_message_box_build_string@_W@@YAXQEA_W_KQEB_W2IQEAX@Z 0000000180028f44     libucrt:assert.obj
 0002:0000af64       $unwind$__stdio_common_vfwprintf 0000000180028f64     libucrt:output.obj
 0002:0000af64       $unwind$__stdio_common_vfprintf 0000000180028f64     libucrt:output.obj
 0002:0000af6c       $unwind$__stdio_common_vswprintf 0000000180028f6c     libucrt:output.obj
 0002:0000af90       $unwind$?write_string@?$stream_output_adapter@D@__crt_stdio_output@@QEBAXQEBDHQEAH1@Z 0000000180028f90     libucrt:output.obj
 0002:0000afa8       $unwind$?process@?$output_processor@DV?$stream_output_adapter@D@__crt_stdio_output@@V?$standard_base@DV?$stream_output_adapter@D@__crt_stdio_output@@@2@@__crt_stdio_output@@QEAAHXZ 0000000180028fa8     libucrt:output.obj
 0002:0000afb8       $unwind$?parse_int_from_format_string@?$output_processor@DV?$stream_output_adapter@D@__crt_stdio_output@@V?$standard_base@DV?$stream_output_adapter@D@__crt_stdio_output@@@2@@__crt_stdio_output@@AEAA_NQEAH@Z 0000000180028fb8     libucrt:output.obj
 0002:0000afcc       $unwind$?state_case_type@?$output_processor@DV?$stream_output_adapter@D@__crt_stdio_output@@V?$standard_base@DV?$stream_output_adapter@D@__crt_stdio_output@@@2@@__crt_stdio_output@@AEAA_NXZ 0000000180028fcc     libucrt:output.obj
 0002:0000afe4       $unwind$?type_case_a@?$output_processor@DV?$stream_output_adapter@D@__crt_stdio_output@@V?$standard_base@DV?$stream_output_adapter@D@__crt_stdio_output@@@2@@__crt_stdio_output@@AEAA_NXZ 0000000180028fe4     libucrt:output.obj
 0002:0000aff0       $unwind$?write_stored_string_tchar@?$output_processor@DV?$stream_output_adapter@D@__crt_stdio_output@@V?$standard_base@DV?$stream_output_adapter@D@__crt_stdio_output@@@2@@__crt_stdio_output@@AEAA_ND@Z 0000000180028ff0     libucrt:output.obj
 0002:0000b008       $unwind$?write_string@?$stream_output_adapter@_W@__crt_stdio_output@@QEBAXQEB_WHQEAH1@Z 0000000180029008     libucrt:output.obj
 0002:0000b020       $unwind$?process@?$output_processor@_WV?$stream_output_adapter@_W@__crt_stdio_output@@V?$standard_base@_WV?$stream_output_adapter@_W@__crt_stdio_output@@@2@@__crt_stdio_output@@QEAAHXZ 0000000180029020     libucrt:output.obj
 0002:0000b038       $unwind$?state_case_type@?$output_processor@_WV?$stream_output_adapter@_W@__crt_stdio_output@@V?$standard_base@_WV?$stream_output_adapter@_W@__crt_stdio_output@@@2@@__crt_stdio_output@@AEAA_NXZ 0000000180029038     libucrt:output.obj
 0002:0000b038       $unwind$?state_case_type@?$output_processor@_WV?$string_output_adapter@_W@__crt_stdio_output@@V?$standard_base@_WV?$string_output_adapter@_W@__crt_stdio_output@@@2@@__crt_stdio_output@@AEAA_NXZ 0000000180029038     libucrt:output.obj
 0002:0000b05c       $unwind$?type_case_c_tchar@?$output_processor@_WV?$string_output_adapter@_W@__crt_stdio_output@@V?$standard_base@_WV?$string_output_adapter@_W@__crt_stdio_output@@@2@@__crt_stdio_output@@AEAA_N_W@Z 000000018002905c     libucrt:output.obj
 0002:0000b05c       $unwind$?type_case_c_tchar@?$output_processor@_WV?$stream_output_adapter@_W@__crt_stdio_output@@V?$standard_base@_WV?$stream_output_adapter@_W@__crt_stdio_output@@@2@@__crt_stdio_output@@AEAA_N_W@Z 000000018002905c     libucrt:output.obj
 0002:0000b05c       $unwind$??R<lambda_b721fa326cdb32351d23dfa67958c160>@@QEBAHXZ 000000018002905c     libucrt:setvbuf.obj
 0002:0000b06c       $unwind$?write_stored_string_tchar@?$output_processor@_WV?$stream_output_adapter@_W@__crt_stdio_output@@V?$standard_base@_WV?$stream_output_adapter@_W@__crt_stdio_output@@@2@@__crt_stdio_output@@AEAA_N_W@Z 000000018002906c     libucrt:output.obj
 0002:0000b080       $unwind$??R<lambda_0a64b6a4deda75c01876f29c44fc5eb3>@@QEBAHXZ 0000000180029080     libucrt:output.obj
 0002:0000b080       $unwind$??R<lambda_dd75445284c072d0bd3768540cc698fa>@@QEBAHXZ 0000000180029080     libucrt:output.obj
 0002:0000b09c       $unwind$?type_case_a@?$output_processor@_WV?$string_output_adapter@_W@__crt_stdio_output@@V?$standard_base@_WV?$string_output_adapter@_W@__crt_stdio_output@@@2@@__crt_stdio_output@@AEAA_NXZ 000000018002909c     libucrt:output.obj
 0002:0000b09c       $unwind$?type_case_a@?$output_processor@_WV?$stream_output_adapter@_W@__crt_stdio_output@@V?$standard_base@_WV?$stream_output_adapter@_W@__crt_stdio_output@@@2@@__crt_stdio_output@@AEAA_NXZ 000000018002909c     libucrt:output.obj
 0002:0000b0ac       $unwind$?write_stored_string_tchar@?$output_processor@_WV?$string_output_adapter@_W@__crt_stdio_output@@V?$standard_base@_WV?$string_output_adapter@_W@__crt_stdio_output@@@2@@__crt_stdio_output@@AEAA_N_W@Z 00000001800290ac     libucrt:output.obj
 0002:0000b0c0       $unwind$??$write_multiple_characters@V?$stream_output_adapter@D@__crt_stdio_output@@D@__crt_stdio_output@@YAXAEBV?$stream_output_adapter@D@0@DHQEAH@Z 00000001800290c0     libucrt:output.obj
 0002:0000b0d8       $unwind$??$write_multiple_characters@V?$stream_output_adapter@_W@__crt_stdio_output@@D@__crt_stdio_output@@YAXAEBV?$stream_output_adapter@_W@0@DHQEAH@Z 00000001800290d8     libucrt:output.obj
 0002:0000b0f0       $unwind$??$write_multiple_characters@V?$string_output_adapter@_W@__crt_stdio_output@@D@__crt_stdio_output@@YAXAEBV?$string_output_adapter@_W@0@DHQEAH@Z 00000001800290f0     libucrt:output.obj
 0002:0000b0fc       $unwind$?setSBCS@@YAXPEAU__crt_multibyte_data@@@Z 00000001800290fc     libucrt:mbctype.obj
 0002:0000b0fc       $unwind$?dllmain_raw@@YAHQEAUHINSTANCE__@@KQEAX@Z 00000001800290fc     LIBCMT:dll_dllmain.obj
 0002:0000b0fc       $unwind$_recalloc_base     00000001800290fc     libucrt:recalloc.obj
 0002:0000b0fc       $unwind$__vcrt_InitializeCriticalSectionEx 00000001800290fc     libvcruntime:winapi_downlevel.obj
 0002:0000b0fc       $unwind$__acrt_InitializeCriticalSectionEx 00000001800290fc     libucrt:winapi_thunks.obj
 0002:0000b0fc       $unwind$?expand_if_necessary@?$argument_list@D@?A0xca0879c4@@AEAAHXZ 00000001800290fc     libucrt:argv_wildcards.obj
 0002:0000b0fc       $unwind$__acrt_execute_initializers 00000001800290fc     libucrt:shared_initialization.obj
 0002:0000b0fc       $unwind$__acrt_free_locale 00000001800290fc     libucrt:locale_refcounting.obj
 0002:0000b0fc       $unwind$_seh_filter_exe    00000001800290fc     libucrt:exception_filter.obj
 0002:0000b0fc       $unwind$__scrt_dllmain_exception_filter 00000001800290fc     LIBCMT:utility.obj
 0002:0000b0fc       $unwind$??$ensure_buffer_is_big_enough@D@formatting_buffer@__crt_stdio_output@@QEAA_N_K@Z 00000001800290fc     libucrt:output.obj
 0002:0000b0fc       $unwind$?_ExecutionInCatch@@YAHPEAU_xDISPATCHER_CONTEXT@@PEBU_s_FuncInfo@@@Z 00000001800290fc     libvcruntime:trnsctrl.obj
 0002:0000b0fc       $unwind$_wassert           00000001800290fc     libucrt:assert.obj
 0002:0000b0fc       $unwind$__acrt_lowio_create_handle_array 00000001800290fc     libucrt:osfinfo.obj
 0002:0000b110       $unwind$??$type_case_integer_parse_into_buffer@I@?$output_processor@_WV?$stream_output_adapter@_W@__crt_stdio_output@@V?$standard_base@_WV?$stream_output_adapter@_W@__crt_stdio_output@@@2@@__crt_stdio_output@@AEAAXII_N@Z 0000000180029110     libucrt:output.obj
 0002:0000b110       $unwind$??$type_case_integer_parse_into_buffer@I@?$output_processor@DV?$stream_output_adapter@D@__crt_stdio_output@@V?$standard_base@DV?$stream_output_adapter@D@__crt_stdio_output@@@2@@__crt_stdio_output@@AEAAXII_N@Z 0000000180029110     libucrt:output.obj
 0002:0000b110       $unwind$??$type_case_integer_parse_into_buffer@_K@?$output_processor@_WV?$stream_output_adapter@_W@__crt_stdio_output@@V?$standard_base@_WV?$stream_output_adapter@_W@__crt_stdio_output@@@2@@__crt_stdio_output@@AEAAX_KI_N@Z 0000000180029110     libucrt:output.obj
 0002:0000b110       $unwind$??$type_case_integer_parse_into_buffer@I@?$output_processor@_WV?$string_output_adapter@_W@__crt_stdio_output@@V?$standard_base@_WV?$string_output_adapter@_W@__crt_stdio_output@@@2@@__crt_stdio_output@@AEAAXII_N@Z 0000000180029110     libucrt:output.obj
 0002:0000b110       $unwind$??$type_case_integer_parse_into_buffer@_K@?$output_processor@_WV?$string_output_adapter@_W@__crt_stdio_output@@V?$standard_base@_WV?$string_output_adapter@_W@__crt_stdio_output@@@2@@__crt_stdio_output@@AEAAX_KI_N@Z 0000000180029110     libucrt:output.obj
 0002:0000b110       $unwind$??$type_case_integer_parse_into_buffer@_K@?$output_processor@DV?$stream_output_adapter@D@__crt_stdio_output@@V?$standard_base@DV?$stream_output_adapter@D@__crt_stdio_output@@@2@@__crt_stdio_output@@AEAAX_KI_N@Z 0000000180029110     libucrt:output.obj
 0002:0000b118       $unwind$??$?RV<lambda_aa279a7bcb127014629d5b1d62c7325d>@@AEAV<lambda_0a64b6a4deda75c01876f29c44fc5eb3>@@V<lambda_3323e69fbefe9d1a11713e670d47cdfa>@@@?$__crt_seh_guarded_call@H@@QEAAH$$QEAV<lambda_aa279a7bcb127014629d5b1d62c7325d>@@AEAV<lambda_0a64b6a4deda75c01876f29c44fc5eb3>@@$$QEAV<lambda_3323e69fbefe9d1a11713e670d47cdfa>@@@Z 0000000180029118     libucrt:output.obj
 0002:0000b13c       $unwind$??$?RV<lambda_7b91131dde12e1c3dfc74ff76b3f2eac>@@AEAV<lambda_dd75445284c072d0bd3768540cc698fa>@@V<lambda_16bc4ecb55b4718497c16bceaea2ceaf>@@@?$__crt_seh_guarded_call@H@@QEAAH$$QEAV<lambda_7b91131dde12e1c3dfc74ff76b3f2eac>@@AEAV<lambda_dd75445284c072d0bd3768540cc698fa>@@$$QEAV<lambda_16bc4ecb55b4718497c16bceaea2ceaf>@@@Z 000000018002913c     libucrt:output.obj
 0002:0000b160       $unwind$_query_new_handler 0000000180029160     libucrt:new_handler.obj
 0002:0000b180       $unwind$?common_exit@@YAXHW4_crt_exit_cleanup_mode@@W4_crt_exit_return_mode@@@Z 0000000180029180     libucrt:exit.obj
 0002:0000b1c0       $unwind$_configure_narrow_argv 00000001800291c0     libucrt:argv_parsing.obj
 0002:0000b1d4       $unwind$??$free_environment@D@@YAXQEAPEAD@Z 00000001800291d4     libucrt:environment_initialization.obj
 0002:0000b1d4       $unwind$??$free_environment@_W@@YAXQEAPEA_W@Z 00000001800291d4     libucrt:environment_initialization.obj
 0002:0000b1e0       $unwind$??$create_environment@D@@YAQEAPEADQEAD@Z 00000001800291e0     libucrt:environment_initialization.obj
 0002:0000b1f8       $unwind$_register_onexit_function 00000001800291f8     libucrt:onexit.obj
 0002:0000b200       $unwind$_execute_onexit_table 0000000180029200     libucrt:onexit.obj
 0002:0000b208       $unwind$?_GetRangeOfTrysToCheck@@YAPEBU_s_TryBlockMapEntry@@PEA_KPEBU_s_FuncInfo@@HHPEAI2PEAU_xDISPATCHER_CONTEXT@@@Z 0000000180029208     libvcruntime:trnsctrl.obj
 0002:0000b208       $unwind$??$parse_command_line@D@@YAXPEADPEAPEAD0PEA_K2@Z 0000000180029208     libucrt:argv_parsing.obj
 0002:0000b208       $unwind$??R<lambda_4e60a939b0d047cfe11ddc22648dfba9>@@QEBAHXZ 0000000180029208     libucrt:onexit.obj
 0002:0000b224       $unwind$??$?RV<lambda_b8c45f8f788dd370798f47cfe8ac3a86>@@AEAV<lambda_4e60a939b0d047cfe11ddc22648dfba9>@@V<lambda_332c3edc96d0294ec56c57d38c1cdfd5>@@@?$__crt_seh_guarded_call@H@@QEAAH$$QEAV<lambda_b8c45f8f788dd370798f47cfe8ac3a86>@@AEAV<lambda_4e60a939b0d047cfe11ddc22648dfba9>@@$$QEAV<lambda_332c3edc96d0294ec56c57d38c1cdfd5>@@@Z 0000000180029224     libucrt:onexit.obj
 0002:0000b248       $unwind$??$?RV<lambda_e24bbb7b643b32fcea6fa61b31d4c984>@@AEAV<lambda_275893d493268fdec8709772e3fcec0e>@@V<lambda_9d71df4d7cf3f480f8d633942495c3b0>@@@?$__crt_seh_guarded_call@H@@QEAAH$$QEAV<lambda_e24bbb7b643b32fcea6fa61b31d4c984>@@AEAV<lambda_275893d493268fdec8709772e3fcec0e>@@$$QEAV<lambda_9d71df4d7cf3f480f8d633942495c3b0>@@@Z 0000000180029248     libucrt:onexit.obj
 0002:0000b278       $unwind$?validate_stream_is_ansi_if_required@?$__acrt_stdio_char_traits@D@@SA_NQEAU_iobuf@@@Z 0000000180029278     libucrt:output.obj
 0002:0000b278       $unwind$_GetThrowImageBase 0000000180029278     libvcruntime:trnsctrl.obj
 0002:0000b278       $unwind$_msize             0000000180029278     libucrt:msize.obj
 0002:0000b278       $unwind$_statfp            0000000180029278     libucrt:fpctrl.obj
 0002:0000b278       $unwind$_GetImageBase      0000000180029278     libvcruntime:trnsctrl.obj
 0002:0000b278       $unwind$uninitialize_environment 0000000180029278     libucrt:initialization.obj
 0002:0000b278       $unwind$atexit             0000000180029278     LIBCMT:utility.obj
 0002:0000b278       $unwind$?state_case_size@?$output_processor@_WV?$stream_output_adapter@_W@__crt_stdio_output@@V?$standard_base@_WV?$stream_output_adapter@_W@__crt_stdio_output@@@2@@__crt_stdio_output@@AEAA_NXZ 0000000180029278     libucrt:output.obj
 0002:0000b278       $unwind$?state_case_size@?$output_processor@DV?$stream_output_adapter@D@__crt_stdio_output@@V?$standard_base@DV?$stream_output_adapter@D@__crt_stdio_output@@@2@@__crt_stdio_output@@AEAA_NXZ 0000000180029278     libucrt:output.obj
 0002:0000b278       $unwind$?initialize_multibyte@@YAHXZ 0000000180029278     libucrt:multibyte_initializer.obj
 0002:0000b278       $unwind$initialize_c       0000000180029278     libucrt:initialization.obj
 0002:0000b278       $unwind$__acrt_uninitialize_ptd 0000000180029278     libucrt:per_thread_data.obj
 0002:0000b278       $unwind$__acrt_thread_detach 0000000180029278     libucrt:initialization.obj
 0002:0000b278       $unwind$__acrt_initialize_heap 0000000180029278     libucrt:heap_handle.obj
 0002:0000b278       $unwind$__dcrt_uninitialize_environments_nolock 0000000180029278     libucrt:environment_initialization.obj
 0002:0000b278       $unwind$__acrt_thread_attach 0000000180029278     libucrt:initialization.obj
 0002:0000b278       $unwind$__acrt_uninitialize_critical 0000000180029278     libucrt:initialization.obj
 0002:0000b278       $unwind$?state_case_size@?$output_processor@_WV?$string_output_adapter@_W@__crt_stdio_output@@V?$standard_base@_WV?$string_output_adapter@_W@__crt_stdio_output@@@2@@__crt_stdio_output@@AEAA_NXZ 0000000180029278     libucrt:output.obj
 0002:0000b278       $unwind$??$uninitialize_environment_internal@D@@YAXAEAPEAPEAD@Z 0000000180029278     libucrt:environment_initialization.obj
 0002:0000b278       $unwind$?__GetCurrentState@@YAHPEA_KPEAU_xDISPATCHER_CONTEXT@@PEBU_s_FuncInfo@@@Z 0000000180029278     libvcruntime:ehstate.obj
 0002:0000b278       $unwind$??$uninitialize_environment_internal@_W@@YAXAEAPEAPEA_W@Z 0000000180029278     libucrt:environment_initialization.obj
 0002:0000b278       $unwind$__scrt_initialize_default_local_stdio_options 0000000180029278     LIBCMT:default_local_stdio_options.obj
 0002:0000b278       $unwind$__acrt_initialize_ptd 0000000180029278     libucrt:per_thread_data.obj
 0002:0000b278       $unwind$_isatty            0000000180029278     libucrt:isatty.obj
 0002:0000b278       $unwind$__pctype_func      0000000180029278     libucrt:ctype.obj
 0002:0000b278       $unwind$_get_osfhandle     0000000180029278     libucrt:osfinfo.obj
 0002:0000b278       $unwind$__scrt_acquire_startup_lock 0000000180029278     LIBCMT:utility.obj
 0002:0000b278       $unwind$__acrt_initialize_command_line 0000000180029278     libucrt:argv_data.obj
 0002:0000b278       $unwind$abort              0000000180029278     libucrt:abort.obj
 0002:0000b278       $unwind$__scrt_dllmain_before_initialize_c 0000000180029278     LIBCMT:utility.obj
 0002:0000b278       $unwind$__acrt_DownlevelLocaleNameToLCID 0000000180029278     libucrt:lcidtoname_downlevel.obj
 0002:0000b278       $unwind$_fileno            0000000180029278     libucrt:fileno.obj
 0002:0000b278       $unwind$__dcrt_terminate_console_output 0000000180029278     libucrt:initcon.obj
 0002:0000b278       $unwind$__scrt_dllmain_after_initialize_c 0000000180029278     LIBCMT:utility.obj
 0002:0000b278       $unwind$__vcrt_freefls     0000000180029278     libvcruntime:per_thread_data.obj
 0002:0000b278       $unwind$_set_errno_from_matherr 0000000180029278     libucrt:fpexcept.obj
 0002:0000b278       $unwind$_getfpcontrolword  0000000180029278     libucrt:_fenvutils.obj
 0002:0000b278       $unwind$__scrt_dllmain_uninitialize_c 0000000180029278     LIBCMT:utility.obj
 0002:0000b278       $unwind$_getfpstatusword   0000000180029278     libucrt:_fenvutils.obj
 0002:0000b278       $unwind$__scrt_dllmain_uninitialize_critical 0000000180029278     LIBCMT:utility.obj
 0002:0000b278       $unwind$__vcrt_getptd      0000000180029278     libvcruntime:per_thread_data.obj
 0002:0000b278       $unwind$__scrt_dllmain_crt_thread_attach 0000000180029278     LIBCMT:utility.obj
 0002:0000b278       $unwind$__vcrt_uninitialize_ptd 0000000180029278     libvcruntime:per_thread_data.obj
 0002:0000b278       $unwind$__vcrt_initialize_ptd 0000000180029278     libvcruntime:per_thread_data.obj
 0002:0000b278       $unwind$_set_error_mode    0000000180029278     libucrt:set_error_mode.obj
 0002:0000b278       $unwind$__GSHandlerCheck   0000000180029278     LIBCMT:_gshandler_.obj
 0002:0000b278       $unwind$_invoke_watson     0000000180029278     libucrt:invalid_parameter.obj
 0002:0000b278       $unwind$__vcrt_thread_detach 0000000180029278     libvcruntime:initialization.obj
 0002:0000b278       $unwind$__vcrt_thread_attach 0000000180029278     libvcruntime:initialization.obj
 0002:0000b278       $unwind$__vcrt_uninitialize_critical 0000000180029278     libvcruntime:initialization.obj
 0002:0000b278       $unwind$__report_rangecheckfailure 0000000180029278     LIBCMT:gs_report.obj
 0002:0000b278       $unwind$__vcrt_uninitialize 0000000180029278     libvcruntime:initialization.obj
 0002:0000b278       $unwind$__scrt_dllmain_crt_thread_detach 0000000180029278     LIBCMT:utility.obj
 0002:0000b278       $unwind$__vcrt_initialize  0000000180029278     libvcruntime:initialization.obj
 0002:0000b278       $unwind$_errno             0000000180029278     libucrt:errno.obj
 0002:0000b278       $unwind$__doserrno         0000000180029278     libucrt:errno.obj
 0002:0000b278       $unwind$__acrt_release_locale_ref 0000000180029278     libucrt:locale_refcounting.obj
 0002:0000b278       $unwind$tolower            0000000180029278     libucrt:tolower_toupper.obj
 0002:0000b278       $unwind$__std_terminate    0000000180029278     libvcruntime:frame.obj
 0002:0000b278       $unwind$__FrameUnwindFilter 0000000180029278     libvcruntime:frame.obj
 0002:0000b278       $unwind$__acrt_initialize_multibyte 0000000180029278     libucrt:mbctype.obj
 0002:0000b278       $unwind$?dllmain_crt_dispatch@@YAHQEAUHINSTANCE__@@KQEAX@Z 0000000180029278     LIBCMT:dll_dllmain.obj
 0002:0000b280       $unwind$terminate          0000000180029280     libucrt:terminate.obj
 0002:0000b2a0       $unwind$??$parse_integer@KV?$c_string_character_source@D@__crt_strtox@@@__crt_strtox@@YAKQEAU__crt_locale_pointers@@V?$c_string_character_source@D@0@H_N@Z 00000001800292a0     libucrt:atox.obj
 0002:0000b2bc       $unwind$??$parse_integer@KV?$c_string_character_source@_W@__crt_strtox@@@__crt_strtox@@YAKQEAU__crt_locale_pointers@@V?$c_string_character_source@_W@0@H_N@Z 00000001800292bc     libucrt:atox.obj
 0002:0000b2d8       $unwind$_free_base         00000001800292d8     libucrt:free_base.obj
 0002:0000b2d8       $unwind$__acrt_locale_free_numeric 00000001800292d8     libucrt:initnum.obj
 0002:0000b2d8       $unwind$?destroy_fls@@YAXPEAX@Z 00000001800292d8     libucrt:per_thread_data.obj
 0002:0000b2d8       $unwind$__acrt_locale_free_lc_time_if_unreferenced 00000001800292d8     libucrt:locale_refcounting.obj
 0002:0000b2e0       $unwind$?construct_ptd_array@@YAXQEAU__acrt_ptd@@@Z 00000001800292e0     libucrt:per_thread_data.obj
 0002:0000b2e8       $unwind$?destroy_ptd_array@@YAXQEAU__acrt_ptd@@@Z 00000001800292e8     libucrt:per_thread_data.obj
 0002:0000b2f0       $unwind$??$?RV<lambda_72d1df2b273a38828b1ce30cbf4cdab5>@@AEAV<lambda_876a65b173b8412d3a47c70a915b0cf4>@@V<lambda_41932305e351933ebe8f8be3ed8bb5dc>@@@?$__crt_seh_guarded_call@X@@QEAAX$$QEAV<lambda_72d1df2b273a38828b1ce30cbf4cdab5>@@AEAV<lambda_876a65b173b8412d3a47c70a915b0cf4>@@$$QEAV<lambda_41932305e351933ebe8f8be3ed8bb5dc>@@@Z 00000001800292f0     libucrt:per_thread_data.obj
 0002:0000b314       $unwind$??$?RV<lambda_5e887d1dcbef67a5eb4283622ba103bf>@@AEAV<lambda_4466841279450cc726390878d4a41900>@@V<lambda_341c25c0346d94847f1f3c463c57e077>@@@?$__crt_seh_guarded_call@X@@QEAAX$$QEAV<lambda_5e887d1dcbef67a5eb4283622ba103bf>@@AEAV<lambda_4466841279450cc726390878d4a41900>@@$$QEAV<lambda_341c25c0346d94847f1f3c463c57e077>@@@Z 0000000180029314     libucrt:per_thread_data.obj
 0002:0000b338       $unwind$??$?RV<lambda_46352004c1216016012b18bd6f87e700>@@AEAV<lambda_3bd07e1a1191394380780325891bf33f>@@V<lambda_334532d3f185bcaa59b5be82d7d22bff>@@@?$__crt_seh_guarded_call@X@@QEAAX$$QEAV<lambda_46352004c1216016012b18bd6f87e700>@@AEAV<lambda_3bd07e1a1191394380780325891bf33f>@@$$QEAV<lambda_334532d3f185bcaa59b5be82d7d22bff>@@@Z 0000000180029338     libucrt:per_thread_data.obj
 0002:0000b35c       $unwind$??$?RV<lambda_fb3a7dec4e47f37f22dae91bb15c9095>@@AEAV<lambda_698284760c8add0bfb0756c19673e34b>@@V<lambda_dfb8eca1e75fef3034a8fb18dd509707>@@@?$__crt_seh_guarded_call@X@@QEAAX$$QEAV<lambda_fb3a7dec4e47f37f22dae91bb15c9095>@@AEAV<lambda_698284760c8add0bfb0756c19673e34b>@@$$QEAV<lambda_dfb8eca1e75fef3034a8fb18dd509707>@@@Z 000000018002935c     libucrt:per_thread_data.obj
 0002:0000b380       $unwind$fflush             0000000180029380     libucrt:fflush.obj
 0002:0000b3a4       $unwind$common_flush_all   00000001800293a4     libucrt:fflush.obj
 0002:0000b3e0       $unwind$setvbuf            00000001800293e0     libucrt:setvbuf.obj
 0002:0000b3e8       $unwind$??$?RV<lambda_7a5ef57ff966f610505f1d28a3d40618>@@AEAV<lambda_b721fa326cdb32351d23dfa67958c160>@@V<lambda_5e0fb27672408a07956fe59e48ccb2aa>@@@?$__crt_seh_guarded_call@H@@QEAAH$$QEAV<lambda_7a5ef57ff966f610505f1d28a3d40618>@@AEAV<lambda_b721fa326cdb32351d23dfa67958c160>@@$$QEAV<lambda_5e0fb27672408a07956fe59e48ccb2aa>@@@Z 00000001800293e8     libucrt:setvbuf.obj
 0002:0000b40c       $unwind$__acrt_get_sigabrt_handler 000000018002940c     libucrt:signal.obj
 0002:0000b414       $unwind$raise              0000000180029414     libucrt:signal.obj
 0002:0000b440       $unwind$??$?RV<lambda_c36588078e9f5dfd39652860aa6b3aaf>@@AEAV<lambda_ec61778202f4f5fc7e7711acc23c3bca>@@V<lambda_dc9d2797ccde5d239b4a0efae8ebd7db>@@@?$__crt_seh_guarded_call@P6AXH@Z@@QEAAP6AXH@Z$$QEAV<lambda_c36588078e9f5dfd39652860aa6b3aaf>@@AEAV<lambda_ec61778202f4f5fc7e7711acc23c3bca>@@$$QEAV<lambda_dc9d2797ccde5d239b4a0efae8ebd7db>@@@Z 0000000180029440     libucrt:signal.obj
 0002:0000b464       $unwind$_tolower_l         0000000180029464     libucrt:tolower_toupper.obj
 0002:0000b474       $unwind$__acrt_uninitialize_locale 0000000180029474     libucrt:wsetlocale.obj
 0002:0000b494       $unwind$__acrt_initialize_winapi_thunks 0000000180029494     libucrt:winapi_thunks.obj
 0002:0000b49c       $unwind$__acrt_initialize_stdio 000000018002949c     libucrt:_file.obj
 0002:0000b49c       $unwind$__TypeMatch        000000018002949c     libvcruntime:frame.obj
 0002:0000b49c       $unwind$?process@?$output_processor@_WV?$string_output_adapter@_W@__crt_stdio_output@@V?$standard_base@_WV?$string_output_adapter@_W@__crt_stdio_output@@@2@@__crt_stdio_output@@QEAAHXZ 000000018002949c     libucrt:output.obj
 0002:0000b49c       $unwind$__acrt_MessageBoxW 000000018002949c     libucrt:winapi_thunks.obj
 0002:0000b49c       $unwind$_initterm          000000018002949c     libucrt:initterm.obj
 0002:0000b49c       $unwind$__GSHandlerCheck_EH 000000018002949c     LIBCMT:gshandlereh.obj
 0002:0000b4b4       $unwind$__acrt_is_interactive 00000001800294b4     libucrt:winapi_thunks.obj
 0002:0000b4c8       $unwind$_fcloseall         00000001800294c8     libucrt:closeall.obj
 0002:0000b4ec       $unwind$__acrt_initialize_lowio 00000001800294ec     libucrt:ioinit.obj
 0002:0000b50c       $unwind$?initialize_inherited_file_handles_nolock@@YAXXZ 000000018002950c     libucrt:ioinit.obj
 0002:0000b528       $unwind$_mbtowc_l          0000000180029528     libucrt:mbtowc.obj
 0002:0000b528       $unwind$__acrt_show_wide_message_box 0000000180029528     libucrt:crtmbox.obj
 0002:0000b528       $unwind$__acrt_LCMapStringEx 0000000180029528     libucrt:winapi_thunks.obj
 0002:0000b540       $unwind$_wctomb_s_l        0000000180029540     libucrt:wctomb.obj
 0002:0000b550       $unwind$strnlen            0000000180029550     libucrt:strnlen.obj
 0002:0000b550       $unwind$wcsnlen            0000000180029550     libucrt:strnlen.obj
 0002:0000b558       $unwind$__acrt_fp_format   0000000180029558     libucrt:cvt.obj
 0002:0000b574       $unwind$?fp_format_nan_or_infinity@@YAHW4__acrt_fp_class@@_NPEAD_K1@Z 0000000180029574     libucrt:cvt.obj
 0002:0000b588       $unwind$?fp_format_e_internal@@YAHQEAD_KH_NIQEAU_strflt@@2QEAU__crt_locale_pointers@@@Z 0000000180029588     libucrt:cvt.obj
 0002:0000b5a0       $unwind$?fp_format_a@@YAHQEBNPEAD_KQEAD2H_NIQEAU__crt_locale_pointers@@@Z 00000001800295a0     libucrt:cvt.obj
 0002:0000b5bc       $unwind$?fp_format_g@@YAHQEBNQEAD_K12H_NIQEAU__crt_locale_pointers@@@Z 00000001800295bc     libucrt:cvt.obj
 0002:0000b5d0       $unwind$_fputwc_nolock     00000001800295d0     libucrt:fputwc.obj
 0002:0000b5ec       $unwind$__acrt_stdio_end_temporary_buffering_nolock 00000001800295ec     libucrt:_sftbuf.obj
 0002:0000b5ec       $unwind$__vcrt_uninitialize_winapi_thunks 00000001800295ec     libvcruntime:winapi_downlevel.obj
 0002:0000b5f4       $unwind$??$common_expand_argv_wildcards@D@@YAHQEAPEADQEAPEAPEAD@Z 00000001800295f4     libucrt:argv_wildcards.obj
 0002:0000b60c       $unwind$??$copy_and_add_argument_to_buffer@D@@YAHQEBD0_KAEAV?$argument_list@D@?A0xca0879c4@@@Z 000000018002960c     libucrt:argv_wildcards.obj
 0002:0000b628       $unwind$??$expand_argument_wildcards@D@@YAHQEAD0AEAV?$argument_list@D@?A0xca0879c4@@@Z 0000000180029628     libucrt:argv_wildcards.obj
 0002:0000b648       $unwind$__acrt_update_thread_multibyte_data 0000000180029648     libucrt:mbctype.obj
 0002:0000b66c       $unwind$_setmbcp_nolock    000000018002966c     libucrt:mbctype.obj
 0002:0000b68c       $unwind$?setSBUpLow@@YAXPEAU__crt_multibyte_data@@@Z 000000018002968c     libucrt:mbctype.obj
 0002:0000b6a8       $unwind$?setmbcp_internal@@YAHH_N@Z 00000001800296a8     libucrt:mbctype.obj
 0002:0000b6b8       $unwind$??$?RV<lambda_99476a1ad63dd22509b5d3e65b0ffc95>@@AEAV<lambda_ad1ced32f4ac17aa236e5ef05d6b3b7c>@@V<lambda_f7424dd8d45958661754dc4f2697e9c3>@@@?$__crt_seh_guarded_call@X@@QEAAX$$QEAV<lambda_99476a1ad63dd22509b5d3e65b0ffc95>@@AEAV<lambda_ad1ced32f4ac17aa236e5ef05d6b3b7c>@@$$QEAV<lambda_f7424dd8d45958661754dc4f2697e9c3>@@@Z 00000001800296b8     libucrt:mbctype.obj
 0002:0000b6dc       $unwind$?x_ismbbtype_l@@YAHPEAU__crt_locale_pointers@@IHH@Z 00000001800296dc     libucrt:ismbbyte.obj
 0002:0000b6ec       $unwind$__dcrt_get_narrow_environment_from_os 00000001800296ec     libucrt:get_environment_from_os.obj
 0002:0000b6ec       $unwind$?fp_format_f_internal@@YAHQEAD_KHQEAU_strflt@@_NQEAU__crt_locale_pointers@@@Z 00000001800296ec     libucrt:cvt.obj
 0002:0000b704       $unwind$iswctype           0000000180029704     libucrt:iswctype.obj
 0002:0000b704       $unwind$__acrt_is_packaged_app 0000000180029704     libucrt:winapi_thunks.obj
 0002:0000b710       $unwind$_isctype_l         0000000180029710     libucrt:isctype.obj
 0002:0000b72c       $unwind$__acrt_update_thread_locale_data 000000018002972c     libucrt:locale_refcounting.obj
 0002:0000b750       $unwind$??$?RV<lambda_b521505b218e5242e90febf6bfebc422>@@AEAV<lambda_6978c1fb23f02e42e1d9e99668cc68aa>@@V<lambda_314360699dd331753a4119843814e9a7>@@@?$__crt_seh_guarded_call@H@@QEAAH$$QEAV<lambda_b521505b218e5242e90febf6bfebc422>@@AEAV<lambda_6978c1fb23f02e42e1d9e99668cc68aa>@@$$QEAV<lambda_314360699dd331753a4119843814e9a7>@@@Z 0000000180029750     libucrt:commit.obj
 0002:0000b774       $unwind$_write             0000000180029774     libucrt:write.obj
 0002:0000b7a4       $unwind$_write_nolock      00000001800297a4     libucrt:write.obj
 0002:0000b7bc       $unwind$?write_double_translated_ansi_nolock@@YA?AUwrite_result@?A0x9c548279@@HQEBDI@Z 00000001800297bc     libucrt:write.obj
 0002:0000b7dc       $unwind$?write_text_ansi_nolock@@YA?AUwrite_result@?A0x9c548279@@HQEBDI@Z 00000001800297dc     libucrt:write.obj
 0002:0000b7dc       $unwind$?write_text_utf16le_nolock@@YA?AUwrite_result@?A0x9c548279@@HQEBDI@Z 00000001800297dc     libucrt:write.obj
 0002:0000b7fc       $unwind$?write_text_utf8_nolock@@YA?AUwrite_result@?A0x9c548279@@HQEBDI@Z 00000001800297fc     libucrt:write.obj
 0002:0000b820       $unwind$__acrt_LCMapStringA 0000000180029820     libucrt:lcmapstringa.obj
 0002:0000b830       $unwind$?__acrt_LCMapStringA_stat@@YAHPEAU__crt_locale_pointers@@PEB_WKPEBDHPEADHHH@Z 0000000180029830     libucrt:lcmapstringa.obj
 0002:0000b858       $unwind$__acrt_locale_free_monetary 0000000180029858     libucrt:initmon.obj
 0002:0000b860       $unwind$__acrt_locale_free_time 0000000180029860     libucrt:inittime.obj
 0002:0000b870       $unwind$__acrt_GetStringTypeA 0000000180029870     libucrt:getstringtypea.obj
 0002:0000b898       $unwind$?GetTableIndexFromLocaleName@@YAHPEB_W@Z 0000000180029898     libucrt:lcidtoname_downlevel.obj
 0002:0000b8b0       $unwind$fclose             00000001800298b0     libucrt:fclose.obj
 0002:0000b8d4       $unwind$__acrt_lowio_destroy_handle_array 00000001800298d4     libucrt:osfinfo.obj
 0002:0000b8e4       $unwind$__acrt_lowio_ensure_fh_exists 00000001800298e4     libucrt:osfinfo.obj
 0002:0000b910       $unwind$__acrt_fltout      0000000180029910     libucrt:cfout.obj
 0002:0000b930       $unwind$?divide@__crt_strtox@@YA_KAEAUbig_integer@1@AEBU21@@Z 0000000180029930     libucrt:cfout.obj
 0002:0000b950       $chain$5$?divide@__crt_strtox@@YA_KAEAUbig_integer@1@AEBU21@@Z 0000000180029950     libucrt:cfout.obj
 0002:0000b964       $chain$6$?divide@__crt_strtox@@YA_KAEAUbig_integer@1@AEBU21@@Z 0000000180029964     libucrt:cfout.obj
 0002:0000b974       $unwind$??$write_buffer_nolock@D@@YA_NDV__crt_stdio_stream@@@Z 0000000180029974     libucrt:_flsbuf.obj
 0002:0000b984       $unwind$??$write_buffer_nolock@_W@@YA_N_WV__crt_stdio_stream@@@Z 0000000180029984     libucrt:_flsbuf.obj
 0002:0000b994       $unwind$qsort              0000000180029994     libucrt:qsort.obj
 0002:0000b9ac       $chain$4$qsort             00000001800299ac     libucrt:qsort.obj
 0002:0000b9d0       $chain$5$qsort             00000001800299d0     libucrt:qsort.obj
 0002:0000b9e0       $unwind$?shortsort@@YAXPEAD0_KP6AHPEBX2@Z@Z 00000001800299e0     libucrt:qsort.obj
 0002:0000b9f0       $chain$2$?shortsort@@YAXPEAD0_KP6AHPEBX2@Z@Z 00000001800299f0     libucrt:qsort.obj
 0002:0000ba0c       $chain$3$?shortsort@@YAXPEAD0_KP6AHPEBX2@Z@Z 0000000180029a0c     libucrt:qsort.obj
 0002:0000ba1c       $unwind$strpbrk            0000000180029a1c     libucrt:strpbrk.obj
 0002:0000ba2c       $unwind$_mbsdec_l          0000000180029a2c     libucrt:mbsdec.obj
 0002:0000ba38       $unwind$??$common_lseek@_J@@YA_JH_JH@Z 0000000180029a38     libucrt:lseek.obj
 0002:0000ba68       $unwind$_close             0000000180029a68     libucrt:close.obj
 0002:0000ba68       $unwind$_commit            0000000180029a68     libucrt:commit.obj
 0002:0000ba70       $unwind$??$?RV<lambda_bfedae4ebbf01fab1bb6dcc6a9e276e0>@@AEAV<lambda_2fe9b910cf3cbf4a0ab98a02ba45b3ec>@@V<lambda_237c231691f317818eb88cc1d5d642d6>@@@?$__crt_seh_guarded_call@H@@QEAAH$$QEAV<lambda_bfedae4ebbf01fab1bb6dcc6a9e276e0>@@AEAV<lambda_2fe9b910cf3cbf4a0ab98a02ba45b3ec>@@$$QEAV<lambda_237c231691f317818eb88cc1d5d642d6>@@@Z 0000000180029a70     libucrt:close.obj
 0002:0000ba98       $xdatasym                  0000000180029a98     libucrt:log10.obj
 0002:0000baa4       $unwind$?_Xout_of_range@std@@YAXPEBD@Z 0000000180029aa4     libcpmt:xthrow.obj
 0002:0000baa4       $unwind$_raise_exc         0000000180029aa4     libucrt:fpexcept.obj
 0002:0000baa4       $unwind$?__scrt_throw_std_bad_alloc@@YAXXZ 0000000180029aa4     LIBCMT:throw_bad_alloc.obj
 0002:0000baa4       $unwind$?__scrt_throw_std_bad_array_new_length@@YAXXZ 0000000180029aa4     LIBCMT:throw_bad_alloc.obj
 0002:0000baa4       $unwind$__dcrt_lowio_initialize_console_output 0000000180029aa4     libucrt:initcon.obj
 0002:0000baa4       $unwind$?_Xlength_error@std@@YAXPEBD@Z 0000000180029aa4     libcpmt:xthrow.obj
 0002:0000baa4       $unwind$?_Xbad_alloc@std@@YAXXZ 0000000180029aa4     libcpmt:xthrow.obj
 0002:0000baac       $unwind$common_control87   0000000180029aac     libucrt:ieee.obj
 0002:0000badc       $unwind$_call_matherr      0000000180029adc     libucrt:libm_error.obj
 0002:0000bae4       $unwind$_handle_error      0000000180029ae4     libucrt:libm_error.obj
 0002:0000bb04       $unwind$__acrt_initialize_fma3 0000000180029b04     libucrt:fma3_available.obj
 0002:0000bb0c       $unwind$_log_special_common 0000000180029b0c     libucrt:log_special.obj
 0002:0000bb18       $xdatasym                  0000000180029b18     libucrt:fpsr.obj
 0002:0000bb20       $unwind$_raise_exc_ex      0000000180029b20     libucrt:fpexcept.obj
 0002:0000bb34       $unwind$_ctrlfp            0000000180029b34     libucrt:fpctrl.obj
 0002:0000bb5c       $unwind$_IsNonwritableInCurrentImage 0000000180029b5c     LIBCMT:pesect.obj
 0002:0000bb80       $unwind$__GSHandlerCheckCommon 0000000180029b80     LIBCMT:_gshandler_.obj
 0002:0000bb88       $xdatasym                  0000000180029b88     LIBCMT:_chkstk_.obj
 0002:0000bb90       $xdatasym                  0000000180029b90     libvcruntime:memcmp.obj
 0002:0000bb94       $unwind$strrchr            0000000180029b94     libvcruntime:strrchr.obj
 0002:0000bdf0       .edata                     0000000180029df0     scrypt.exp
 0002:0000be18       rgpv                       0000000180029e18     scrypt.exp
 0002:0000be1c       rgszName                   0000000180029e1c     scrypt.exp
 0002:0000be20       rgwOrd                     0000000180029e20     scrypt.exp
 0002:0000be22       szName                     0000000180029e22     scrypt.exp
 0002:0000be2e       $N00001                    0000000180029e2e     scrypt.exp
 0002:0000c238       .idata$6                   000000018002a238     kernel32:KERNEL32.dll
 0002:0000cd52       .idata$6                   000000018002ad52     iojs:node.dll
 0003:00000030       ?__vcrt_flsindex@@3KA      000000018002c030     libvcruntime:per_thread_data.obj
 0003:00000040       errno_no_memory            000000018002c040     libucrt:errno.obj
 0003:00000044       doserrno_no_memory         000000018002c044     libucrt:errno.obj
 0003:00000158       __acrt_flsindex            000000018002c158     libucrt:per_thread_data.obj
 0003:00000540       __rgctypeflag              000000018002c540     libucrt:mbctype.obj
 0003:00000550       __rgcode_page_info         000000018002c550     libucrt:mbctype.obj
 0003:00000908       ?dazSupported@?1??common_control87@@9@9 000000018002c908     libucrt:ieee.obj
 0003:00000910       ?dazSupported@?1??_ctrlfp@@9@9 000000018002c910     libucrt:fpctrl.obj
 0003:00000930       _module                    000000018002c930     scrypt_node.obj
 0003:00000970       PAD                        000000018002c970     scrypt_lib:sha256.obj
 0003:000009b0       testcase                   000000018002c9b0     scrypt_lib:crypto_scrypt.obj
 0003:00000b60       ?__proc_attached@@3HA      000000018002cb60     LIBCMT:dll_dllmain.obj
 0003:00000b78       ?module_local_atexit_table@@3U_onexit_table_t@@A 000000018002cb78     LIBCMT:utility.obj
 0003:00000b90       ?module_local_at_quick_exit_table@@3U_onexit_table_t@@A 000000018002cb90     LIBCMT:utility.obj
 0003:00000ba8       ?is_initialized_as_dll@@3_NA 000000018002cba8     LIBCMT:utility.obj
 0003:00000bb0       GS_ExceptionRecord         000000018002cbb0     LIBCMT:gs_report.obj
 0003:00000c50       GS_ContextRecord           000000018002cc50     LIBCMT:gs_report.obj
 0003:00001150       ?__vcrt_startup_thread_ptd@@3U__vcrt_ptd@@A 000000018002d150     libvcruntime:per_thread_data.obj
 0003:000011d0       __vcrt_lock_table          000000018002d1d0     libvcruntime:locks.obj
 0003:000011f8       __vcrt_locks_initialized   000000018002d1f8     libvcruntime:locks.obj
 0003:00001200       ?module_handles@@3PAPEAUHINSTANCE__@@A 000000018002d200     libvcruntime:winapi_downlevel.obj
 0003:00001220       ?encoded_function_pointers@@3PAPEAXA 000000018002d220     libvcruntime:winapi_downlevel.obj
 0003:000012b0       ?heap@@3V_HeapManager@@A   000000018002d2b0     libvcruntime:undname.obj
 0003:000012d8       __acrt_invalid_parameter_handler 000000018002d2d8     libucrt:invalid_parameter.obj
 0003:000012f8       __acrt_new_handler         000000018002d2f8     libucrt:new_handler.obj
 0003:00001300       c_termination_complete     000000018002d300     libucrt:exit.obj
 0003:00001308       thread_local_exit_callback_func 000000018002d308     libucrt:exit.obj
 0003:00001310       ?c_exit_complete@?5??common_exit@@YAXHW4_crt_exit_cleanup_mode@@W4_crt_exit_return_mode@@@Z@4_NA 000000018002d310     libucrt:exit.obj
 0003:00001320       ?program_name@?5???$common_configure_argv@D@@YAHW4_crt_argv_mode@@@Z@4PADA 000000018002d320     libucrt:argv_parsing.obj
 0003:00001478       __acrt_app_type            000000018002d478     libucrt:report_runtime_error.obj
 0003:0000147c       __acrt_error_mode          000000018002d47c     libucrt:set_error_mode.obj
 0003:00001480       ctrlc_action               000000018002d480     libucrt:signal.obj
 0003:00001488       ctrlbreak_action           000000018002d488     libucrt:signal.obj
 0003:00001490       abort_action               000000018002d490     libucrt:signal.obj
 0003:00001498       term_action                000000018002d498     libucrt:signal.obj
 0003:000014b0       module_handles             000000018002d4b0     libucrt:winapi_thunks.obj
 0003:00001550       encoded_function_pointers  000000018002d550     libucrt:winapi_thunks.obj
 0003:00001650       ?state_cache@?1??__acrt_is_packaged_app@@9@4JA 000000018002d650     libucrt:winapi_thunks.obj
 0003:00001a68       enable_percent_n           000000018002da68     libucrt:printf_count_output.obj
 0003:00001a80       __acrt_lock_table          000000018002da80     libucrt:locks.obj
 0003:00001c88       __acrt_locks_initialized   000000018002dc88     libucrt:locks.obj
 0003:00001ca4       fSystemSet                 000000018002dca4     libucrt:mbctype.obj
 0003:00001cb0       ?initialized@?1??__acrt_initialize_multibyte@@9@4_NA 000000018002dcb0     libucrt:mbctype.obj
 0003:00001ce8       user_matherr               000000018002dce8     libucrt:matherr.obj
 0003:00001cf0       __acrt_global_new_mode     000000018002dcf0     libucrt:new_mode.obj
 0003:00001d08       smix_func                  000000018002dd08     scrypt_lib:crypto_scrypt.obj
 0003:00001d10       name                       000000018002dd10     scrypt_lib:warnp.obj
 0004:00000000       $pdata$?Error@Nan@@YA?AV?$Local@VValue@v8@@@v8@@PEBD@Z 000000018002e000     scrypt_common.obj
 0004:0000000c       $pdata$?ScryptErrorDescr@?A0x3a241abb@@YAPEBDI@Z 000000018002e00c     scrypt_common.obj
 0004:00000018       $pdata$?ScryptError@NodeScrypt@@YA?AV?$Local@VValue@v8@@@v8@@I@Z 000000018002e018     scrypt_common.obj
 0004:00000024       $pdata$??1?$basic_string@DU?$char_traits@D@std@@V?$allocator@D@2@@std@@QEAA@XZ 000000018002e024     scrypt_common.obj
 0004:00000030       $pdata$??0?$basic_string@DU?$char_traits@D@std@@V?$allocator@D@2@@std@@QEAA@$$QEAV01@@Z 000000018002e030     scrypt_common.obj
 0004:0000003c       $pdata$?assign@?$basic_string@DU?$char_traits@D@std@@V?$allocator@D@2@@std@@QEAAAEAV12@PEBD_K@Z 000000018002e03c     scrypt_common.obj
 0004:00000048       $pdata$?assign@?$basic_string@DU?$char_traits@D@std@@V?$allocator@D@2@@std@@QEAAAEAV12@AEBV12@_K1@Z 000000018002e048     scrypt_common.obj
 0004:00000054       $pdata$?append@?$basic_string@DU?$char_traits@D@std@@V?$allocator@D@2@@std@@QEAAAEAV12@AEBV12@_K1@Z 000000018002e054     scrypt_common.obj
 0004:00000060       $pdata$0$?append@?$basic_string@DU?$char_traits@D@std@@V?$allocator@D@2@@std@@QEAAAEAV12@AEBV12@_K1@Z 000000018002e060     scrypt_common.obj
 0004:0000006c       $pdata$1$?append@?$basic_string@DU?$char_traits@D@std@@V?$allocator@D@2@@std@@QEAAAEAV12@AEBV12@_K1@Z 000000018002e06c     scrypt_common.obj
 0004:00000078       $pdata$2$?append@?$basic_string@DU?$char_traits@D@std@@V?$allocator@D@2@@std@@QEAAAEAV12@AEBV12@_K1@Z 000000018002e078     scrypt_common.obj
 0004:00000084       $pdata$?erase@?$basic_string@DU?$char_traits@D@std@@V?$allocator@D@2@@std@@QEAAAEAV12@_K0@Z 000000018002e084     scrypt_common.obj
 0004:00000090       $pdata$?_Copy@?$basic_string@DU?$char_traits@D@std@@V?$allocator@D@2@@std@@QEAAX_K0@Z 000000018002e090     scrypt_common.obj
 0004:0000009c       $pdata$??$?HDU?$char_traits@D@std@@V?$allocator@D@1@@std@@YA?AV?$basic_string@DU?$char_traits@D@std@@V?$allocator@D@2@@0@PEBD$$QEAV10@@Z 000000018002e09c     scrypt_common.obj
 0004:000000a8       $pdata$?insert@?$basic_string@DU?$char_traits@D@std@@V?$allocator@D@2@@std@@QEAAAEAV12@_KPEBD0@Z 000000018002e0a8     scrypt_common.obj
 0004:000000b4       $pdata$0$?insert@?$basic_string@DU?$char_traits@D@std@@V?$allocator@D@2@@std@@QEAAAEAV12@_KPEBD0@Z 000000018002e0b4     scrypt_common.obj
 0004:000000c0       $pdata$1$?insert@?$basic_string@DU?$char_traits@D@std@@V?$allocator@D@2@@std@@QEAAAEAV12@_KPEBD0@Z 000000018002e0c0     scrypt_common.obj
 0004:000000cc       $pdata$2$?insert@?$basic_string@DU?$char_traits@D@std@@V?$allocator@D@2@@std@@QEAAAEAV12@_KPEBD0@Z 000000018002e0cc     scrypt_common.obj
 0004:000000d8       $pdata$?insert@?$basic_string@DU?$char_traits@D@std@@V?$allocator@D@2@@std@@QEAAAEAV12@_KAEBV12@00@Z 000000018002e0d8     scrypt_common.obj
 0004:000000e4       $pdata$0$?insert@?$basic_string@DU?$char_traits@D@std@@V?$allocator@D@2@@std@@QEAAAEAV12@_KAEBV12@00@Z 000000018002e0e4     scrypt_common.obj
 0004:000000f0       $pdata$1$?insert@?$basic_string@DU?$char_traits@D@std@@V?$allocator@D@2@@std@@QEAAAEAV12@_KAEBV12@00@Z 000000018002e0f0     scrypt_common.obj
 0004:000000fc       $pdata$3$?insert@?$basic_string@DU?$char_traits@D@std@@V?$allocator@D@2@@std@@QEAAAEAV12@_KAEBV12@00@Z 000000018002e0fc     scrypt_common.obj
 0004:00000108       $pdata$4$?insert@?$basic_string@DU?$char_traits@D@std@@V?$allocator@D@2@@std@@QEAAAEAV12@_KAEBV12@00@Z 000000018002e108     scrypt_common.obj
 0004:00000114       $pdata$5$?insert@?$basic_string@DU?$char_traits@D@std@@V?$allocator@D@2@@std@@QEAAAEAV12@_KAEBV12@00@Z 000000018002e114     scrypt_common.obj
 0004:00000120       $pdata$?convert@?$ToFactory@VInteger@v8@@@imp@Nan@@SA?AV?$MaybeLocal@VInteger@v8@@@v8@@V?$Local@VValue@v8@@@5@@Z 000000018002e120     scrypt_params_async.obj
 0004:0000012c       $pdata$?Call@Callback@Nan@@QEBA?AV?$Local@VValue@v8@@@v8@@HQEAV34@@Z 000000018002e12c     scrypt_params_async.obj
 0004:00000138       $pdata$?Call@Callback@Nan@@QEBA?AV?$MaybeLocal@VValue@v8@@@v8@@HQEAV?$Local@VValue@v8@@@4@PEAVAsyncResource@2@@Z 000000018002e138     scrypt_params_async.obj
 0004:00000144       $pdata$?Call_@Callback@Nan@@AEBA?AV?$Local@VValue@v8@@@v8@@PEAVIsolate@4@V?$Local@VObject@v8@@@4@HQEAV34@@Z 000000018002e144     scrypt_params_async.obj
 0004:00000150       $pdata$??0AsyncWorker@Nan@@QEAA@PEAVCallback@1@PEBD@Z 000000018002e150     scrypt_params_async.obj
 0004:0000015c       $pdata$??1AsyncWorker@Nan@@UEAA@XZ 000000018002e15c     scrypt_params_async.obj
 0004:00000168       $pdata$?WorkComplete@AsyncWorker@Nan@@UEAAXXZ 000000018002e168     scrypt_params_async.obj
 0004:00000174       $pdata$?HandleOKCallback@AsyncWorker@Nan@@MEAAXXZ 000000018002e174     scrypt_params_async.obj
 0004:00000180       $pdata$?HandleErrorCallback@AsyncWorker@Nan@@MEAAXXZ 000000018002e180     scrypt_params_async.obj
 0004:0000018c       $pdata$??_GAsyncWorker@Nan@@UEAAPEAXI@Z 000000018002e18c     scrypt_params_async.obj
 0004:00000198       $pdata$??1?$Persistent@VObject@v8@@V?$NonCopyablePersistentTraits@VObject@v8@@@2@@Nan@@QEAA@XZ 000000018002e198     scrypt_params_async.obj
 0004:000001a4       $pdata$?AsyncExecuteComplete@Nan@@YAXPEAUuv_work_s@@@Z 000000018002e1a4     scrypt_params_async.obj
 0004:000001b0       $pdata$?HandleErrorCallback@ScryptAsyncWorker@@UEAAXXZ 000000018002e1b0     scrypt_params_async.obj
 0004:000001bc       $pdata$?WorkComplete@ScryptAsyncWorker@@UEAAXXZ 000000018002e1bc     scrypt_params_async.obj
 0004:000001c8       $pdata$??0ScryptParamsAsyncWorker@@QEAA@AEBV?$FunctionCallbackInfo@VValue@v8@@@Nan@@@Z 000000018002e1c8     scrypt_params_async.obj
 0004:000001d4       $pdata$??_GScryptParamsAsyncWorker@@UEAAPEAXI@Z 000000018002e1d4     scrypt_params_async.obj
 0004:000001d4       $pdata$??_GScryptKDFAsyncWorker@@UEAAPEAXI@Z 000000018002e1d4     scrypt_kdf_async.obj
 0004:000001e0       $pdata$?Execute@ScryptParamsAsyncWorker@@UEAAXXZ 000000018002e1e0     scrypt_params_async.obj
 0004:000001ec       $pdata$?HandleOKCallback@ScryptParamsAsyncWorker@@UEAAXXZ 000000018002e1ec     scrypt_params_async.obj
 0004:000001f8       $pdata$?params@@YAXAEBV?$FunctionCallbackInfo@VValue@v8@@@Nan@@@Z 000000018002e1f8     scrypt_params_async.obj
 0004:00000204       $pdata$?paramsSync@@YAXAEBV?$FunctionCallbackInfo@VValue@v8@@@Nan@@@Z 000000018002e204     scrypt_params_sync.obj
 0004:00000210       $pdata$?GetFromPersistent@AsyncWorker@Nan@@QEBA?AV?$Local@VValue@v8@@@v8@@PEBD@Z 000000018002e210     scrypt_kdf_async.obj
 0004:0000021c       $pdata$??0Params@NodeScrypt@@QEAA@AEBV?$Local@VObject@v8@@@v8@@@Z 000000018002e21c     scrypt_kdf_async.obj
 0004:00000228       $pdata$??0ScryptKDFAsyncWorker@@QEAA@AEBV?$FunctionCallbackInfo@VValue@v8@@@Nan@@@Z 000000018002e228     scrypt_kdf_async.obj
 0004:00000234       $pdata$?Execute@ScryptKDFAsyncWorker@@UEAAXXZ 000000018002e234     scrypt_kdf_async.obj
 0004:00000240       $pdata$?HandleOKCallback@ScryptKDFAsyncWorker@@UEAAXXZ 000000018002e240     scrypt_kdf_async.obj
 0004:0000024c       $pdata$?kdf@@YAXAEBV?$FunctionCallbackInfo@VValue@v8@@@Nan@@@Z 000000018002e24c     scrypt_kdf_async.obj
 0004:00000258       $pdata$?kdfSync@@YAXAEBV?$FunctionCallbackInfo@VValue@v8@@@Nan@@@Z 000000018002e258     scrypt_kdf_sync.obj
 0004:00000264       $pdata$?kdfVerifySync@@YAXAEBV?$FunctionCallbackInfo@VValue@v8@@@Nan@@@Z 000000018002e264     scrypt_kdf-verify_sync.obj
 0004:00000270       $pdata$??0ScryptKDFVerifyAsyncWorker@@QEAA@AEBV?$FunctionCallbackInfo@VValue@v8@@@Nan@@@Z 000000018002e270     scrypt_kdf-verify_async.obj
 0004:0000027c       $pdata$??_GScryptKDFVerifyAsyncWorker@@UEAAPEAXI@Z 000000018002e27c     scrypt_kdf-verify_async.obj
 0004:00000288       $pdata$?Execute@ScryptKDFVerifyAsyncWorker@@UEAAXXZ 000000018002e288     scrypt_kdf-verify_async.obj
 0004:00000294       $pdata$?HandleOKCallback@ScryptKDFVerifyAsyncWorker@@UEAAXXZ 000000018002e294     scrypt_kdf-verify_async.obj
 0004:000002a0       $pdata$?kdfVerify@@YAXAEBV?$FunctionCallbackInfo@VValue@v8@@@Nan@@@Z 000000018002e2a0     scrypt_kdf-verify_async.obj
 0004:000002ac       $pdata$?hashSync@@YAXAEBV?$FunctionCallbackInfo@VValue@v8@@@Nan@@@Z 000000018002e2ac     scrypt_hash_sync.obj
 0004:000002b8       $pdata$??0ScryptHashAsyncWorker@@QEAA@AEBV?$FunctionCallbackInfo@VValue@v8@@@Nan@@@Z 000000018002e2b8     scrypt_hash_async.obj
 0004:000002c4       $pdata$??_GScryptHashAsyncWorker@@UEAAPEAXI@Z 000000018002e2c4     scrypt_hash_async.obj
 0004:000002d0       $pdata$?Execute@ScryptHashAsyncWorker@@UEAAXXZ 000000018002e2d0     scrypt_hash_async.obj
 0004:000002dc       $pdata$?HandleOKCallback@ScryptHashAsyncWorker@@UEAAXXZ 000000018002e2dc     scrypt_hash_async.obj
 0004:000002e8       $pdata$?hash@@YAXAEBV?$FunctionCallbackInfo@VValue@v8@@@Nan@@@Z 000000018002e2e8     scrypt_hash_async.obj
 0004:000002f4       $pdata$?FunctionCallbackWrapper@imp@Nan@@YAXAEBV?$FunctionCallbackInfo@VValue@v8@@@v8@@@Z 000000018002e2f4     scrypt_node.obj
 0004:00000300       $pdata$?NewInstance@Nan@@YA?AV?$MaybeLocal@VObject@v8@@@v8@@V?$Local@VObjectTemplate@v8@@@3@@Z 000000018002e300     scrypt_node.obj
 0004:0000030c       $pdata$?GetFunction@Nan@@YA?AV?$MaybeLocal@VFunction@v8@@@v8@@V?$Local@VFunctionTemplate@v8@@@3@@Z 000000018002e30c     scrypt_node.obj
 0004:00000318       $pdata$?Set@Nan@@YA?AV?$Maybe@_N@v8@@V?$Local@VObject@v8@@@3@V?$Local@VValue@v8@@@3@1@Z 000000018002e318     scrypt_node.obj
 0004:00000324       $pdata$?New@?$Factory@VFunctionTemplate@v8@@@imp@Nan@@SA?AV?$Local@VFunctionTemplate@v8@@@v8@@P6AXAEBV?$FunctionCallbackInfo@VValue@v8@@@3@@ZV?$Local@VValue@v8@@@5@V?$Local@VSignature@v8@@@5@@Z 000000018002e324     scrypt_node.obj
 0004:00000330       $pdata$?InitAll@@YAXV?$Local@VObject@v8@@@v8@@@Z 000000018002e330     scrypt_node.obj
 0004:0000033c       $pdata$pickparams          000000018002e33c     scrypt_wrapper:pickparams.obj
 0004:00000348       $pdata$KDF                 000000018002e348     scrypt_wrapper:keyderivation.obj
 0004:00000354       $pdata$2$KDF               000000018002e354     scrypt_wrapper:keyderivation.obj
 0004:00000360       $pdata$3$KDF               000000018002e360     scrypt_wrapper:keyderivation.obj
 0004:0000036c       $pdata$Verify              000000018002e36c     scrypt_wrapper:keyderivation.obj
 0004:00000378       $pdata$0$Verify            000000018002e378     scrypt_wrapper:keyderivation.obj
 0004:00000384       $pdata$1$Verify            000000018002e384     scrypt_wrapper:keyderivation.obj
 0004:00000390       $pdata$2$Verify            000000018002e390     scrypt_wrapper:keyderivation.obj
 0004:0000039c       $pdata$3$Verify            000000018002e39c     scrypt_wrapper:keyderivation.obj
 0004:000003a8       $pdata$scryptenc_cpuperf   000000018002e3a8     scrypt_lib:scryptenc_cpuperf.obj
 0004:000003b4       $pdata$SHA256_Transform    000000018002e3b4     scrypt_lib:sha256.obj
 0004:000003c0       $pdata$SHA256_Pad          000000018002e3c0     scrypt_lib:sha256.obj
 0004:000003cc       $pdata$2$SHA256_Pad        000000018002e3cc     scrypt_lib:sha256.obj
 0004:000003d8       $pdata$3$SHA256_Pad        000000018002e3d8     scrypt_lib:sha256.obj
 0004:000003e4       $pdata$libcperciva_SHA256_Update 000000018002e3e4     scrypt_lib:sha256.obj
 0004:000003f0       $pdata$0$libcperciva_SHA256_Update 000000018002e3f0     scrypt_lib:sha256.obj
 0004:000003fc       $pdata$1$libcperciva_SHA256_Update 000000018002e3fc     scrypt_lib:sha256.obj
 0004:00000408       $pdata$libcperciva_SHA256_Final 000000018002e408     scrypt_lib:sha256.obj
 0004:00000414       $pdata$libcperciva_HMAC_SHA256_Init 000000018002e414     scrypt_lib:sha256.obj
 0004:00000420       $pdata$0$libcperciva_HMAC_SHA256_Init 000000018002e420     scrypt_lib:sha256.obj
 0004:0000042c       $pdata$1$libcperciva_HMAC_SHA256_Init 000000018002e42c     scrypt_lib:sha256.obj
 0004:00000438       $pdata$libcperciva_HMAC_SHA256_Final 000000018002e438     scrypt_lib:sha256.obj
 0004:00000444       $pdata$2$libcperciva_HMAC_SHA256_Final 000000018002e444     scrypt_lib:sha256.obj
 0004:00000450       $pdata$3$libcperciva_HMAC_SHA256_Final 000000018002e450     scrypt_lib:sha256.obj
 0004:0000045c       $pdata$PBKDF2_SHA256       000000018002e45c     scrypt_lib:sha256.obj
 0004:00000468       $pdata$_crypto_scrypt      000000018002e468     scrypt_lib:crypto_scrypt.obj
 0004:00000474       $pdata$testsmix            000000018002e474     scrypt_lib:crypto_scrypt.obj
 0004:00000480       $pdata$crypto_scrypt       000000018002e480     scrypt_lib:crypto_scrypt.obj
 0004:0000048c       $pdata$fprintf             000000018002e48c     scrypt_lib:warnp.obj
 0004:00000498       $pdata$libcperciva_warnx   000000018002e498     scrypt_lib:warnp.obj
 0004:000004a4       $pdata$0$libcperciva_warnx 000000018002e4a4     scrypt_lib:warnp.obj
 0004:000004b0       $pdata$1$libcperciva_warnx 000000018002e4b0     scrypt_lib:warnp.obj
 0004:000004bc       $pdata$salsa20_8           000000018002e4bc     scrypt_lib:crypto_scrypt_smix.obj
 0004:000004c8       $pdata$blockmix_salsa8     000000018002e4c8     scrypt_lib:crypto_scrypt_smix.obj
 0004:000004d4       $pdata$4$blockmix_salsa8   000000018002e4d4     scrypt_lib:crypto_scrypt_smix.obj
 0004:000004e0       $pdata$5$blockmix_salsa8   000000018002e4e0     scrypt_lib:crypto_scrypt_smix.obj
 0004:000004ec       $pdata$crypto_scrypt_smix  000000018002e4ec     scrypt_lib:crypto_scrypt_smix.obj
 0004:000004f8       $pdata$5$crypto_scrypt_smix 000000018002e4f8     scrypt_lib:crypto_scrypt_smix.obj
 0004:00000504       $pdata$6$crypto_scrypt_smix 000000018002e504     scrypt_lib:crypto_scrypt_smix.obj
 0004:00000510       $pdata$??0bad_alloc@std@@QEAA@AEBV01@@Z 000000018002e510     libcpmt:xthrow.obj
 0004:0000051c       $pdata$??0exception@std@@QEAA@AEBV01@@Z 000000018002e51c     libcpmt:xthrow.obj
 0004:00000528       $pdata$??0length_error@std@@QEAA@AEBV01@@Z 000000018002e528     libcpmt:xthrow.obj
 0004:00000534       $pdata$??0length_error@std@@QEAA@PEBD@Z 000000018002e534     libcpmt:xthrow.obj
 0004:00000540       $pdata$??0logic_error@std@@QEAA@AEBV01@@Z 000000018002e540     libcpmt:xthrow.obj
 0004:0000054c       $pdata$??0out_of_range@std@@QEAA@AEBV01@@Z 000000018002e54c     libcpmt:xthrow.obj
 0004:00000558       $pdata$??0out_of_range@std@@QEAA@PEBD@Z 000000018002e558     libcpmt:xthrow.obj
 0004:00000564       $pdata$??_Gbad_alloc@std@@UEAAPEAXI@Z 000000018002e564     libcpmt:xthrow.obj
 0004:00000564       $pdata$??_Gout_of_range@std@@UEAAPEAXI@Z 000000018002e564     libcpmt:xthrow.obj
 0004:00000564       $pdata$??_Gexception@std@@UEAAPEAXI@Z 000000018002e564     libcpmt:xthrow.obj
 0004:00000564       $pdata$??_Glogic_error@std@@UEAAPEAXI@Z 000000018002e564     libcpmt:xthrow.obj
 0004:00000564       $pdata$??_Gbad_array_new_length@std@@UEAAPEAXI@Z 000000018002e564     LIBCMT:throw_bad_alloc.obj
 0004:00000564       $pdata$??_Gbad_exception@std@@UEAAPEAXI@Z 000000018002e564     libvcruntime:frame.obj
 0004:00000564       $pdata$??_Glength_error@std@@UEAAPEAXI@Z 000000018002e564     libcpmt:xthrow.obj
 0004:00000570       $pdata$?_Xbad_alloc@std@@YAXXZ 000000018002e570     libcpmt:xthrow.obj
 0004:00000570       $pdata$?__scrt_throw_std_bad_alloc@@YAXXZ 000000018002e570     LIBCMT:throw_bad_alloc.obj
 0004:0000057c       $pdata$?_Xlength_error@std@@YAXPEBD@Z 000000018002e57c     libcpmt:xthrow.obj
 0004:00000588       $pdata$?_Xout_of_range@std@@YAXPEBD@Z 000000018002e588     libcpmt:xthrow.obj
 0004:000005a0       $pdata$??2@YAPEAX_K@Z      000000018002e5a0     LIBCMT:new_scalar.obj
 0004:000005ac       $pdata$?dllmain_crt_dispatch@@YAHQEAUHINSTANCE__@@KQEAX@Z 000000018002e5ac     LIBCMT:dll_dllmain.obj
 0004:000005b8       $pdata$?dllmain_crt_process_attach@@YAHQEAUHINSTANCE__@@QEAX@Z 000000018002e5b8     LIBCMT:dll_dllmain.obj
 0004:000005c4       $pdata$?dllmain_crt_process_detach@@YAH_N@Z 000000018002e5c4     LIBCMT:dll_dllmain.obj
 0004:000005d0       $pdata$?dllmain_dispatch@@YAHQEAUHINSTANCE__@@KQEAX@Z 000000018002e5d0     LIBCMT:dll_dllmain.obj
 0004:000005dc       $pdata$?dllmain_raw@@YAHQEAUHINSTANCE__@@KQEAX@Z 000000018002e5dc     LIBCMT:dll_dllmain.obj
 0004:000005e8       $pdata$_DllMainCRTStartup  000000018002e5e8     LIBCMT:dll_dllmain.obj
 0004:000005f4       $pdata$__scrt_acquire_startup_lock 000000018002e5f4     LIBCMT:utility.obj
 0004:00000600       $pdata$__scrt_dllmain_after_initialize_c 000000018002e600     LIBCMT:utility.obj
 0004:0000060c       $pdata$__scrt_dllmain_before_initialize_c 000000018002e60c     LIBCMT:utility.obj
 0004:00000618       $pdata$__scrt_dllmain_crt_thread_attach 000000018002e618     LIBCMT:utility.obj
 0004:00000624       $pdata$__scrt_dllmain_crt_thread_detach 000000018002e624     LIBCMT:utility.obj
 0004:00000630       $pdata$__scrt_dllmain_exception_filter 000000018002e630     LIBCMT:utility.obj
 0004:0000063c       $pdata$__scrt_dllmain_uninitialize_c 000000018002e63c     LIBCMT:utility.obj
 0004:00000648       $pdata$__scrt_dllmain_uninitialize_critical 000000018002e648     LIBCMT:utility.obj
 0004:00000654       $pdata$__scrt_initialize_crt 000000018002e654     LIBCMT:utility.obj
 0004:00000660       $pdata$__scrt_initialize_onexit_tables 000000018002e660     LIBCMT:utility.obj
 0004:0000066c       $pdata$__scrt_is_nonwritable_in_current_image 000000018002e66c     LIBCMT:utility.obj
 0004:00000678       $pdata$__scrt_release_startup_lock 000000018002e678     LIBCMT:utility.obj
 0004:00000684       $pdata$__scrt_uninitialize_crt 000000018002e684     LIBCMT:utility.obj
 0004:00000690       $pdata$_onexit             000000018002e690     LIBCMT:utility.obj
 0004:0000069c       $pdata$atexit              000000018002e69c     LIBCMT:utility.obj
 0004:000006a8       $pdata$??_Gtype_info@@UEAAPEAXI@Z 000000018002e6a8     LIBCMT:std_type_info_static.obj
 0004:000006b4       $pdata$__raise_securityfailure 000000018002e6b4     LIBCMT:gs_report.obj
 0004:000006c0       $pdata$__report_gsfailure  000000018002e6c0     LIBCMT:gs_report.obj
 0004:000006cc       $pdata$__report_rangecheckfailure 000000018002e6cc     LIBCMT:gs_report.obj
 0004:000006d8       $pdata$__report_securityfailure 000000018002e6d8     LIBCMT:gs_report.obj
 0004:000006e4       $pdata$capture_current_context 000000018002e6e4     LIBCMT:gs_report.obj
 0004:000006f0       $pdata$capture_previous_context 000000018002e6f0     LIBCMT:gs_report.obj
 0004:000006fc       $pdata$??0bad_array_new_length@std@@QEAA@AEBV01@@Z 000000018002e6fc     LIBCMT:throw_bad_alloc.obj
 0004:00000708       $pdata$?__scrt_throw_std_bad_array_new_length@@YAXXZ 000000018002e708     LIBCMT:throw_bad_alloc.obj
 0004:00000714       $pdata$__security_init_cookie 000000018002e714     LIBCMT:gs_support.obj
 0004:00000720       $pdata$__scrt_initialize_default_local_stdio_options 000000018002e720     LIBCMT:default_local_stdio_options.obj
 0004:0000072c       $pdata$__scrt_fastfail     000000018002e72c     LIBCMT:utility_desktop.obj
 0004:00000738       $pdata$_RTC_Initialize     000000018002e738     LIBCMT:_initsect_.obj
 0004:00000744       $pdata$_RTC_Terminate      000000018002e744     LIBCMT:_initsect_.obj
 0004:00000750       $pdata$__isa_available_init 000000018002e750     LIBCMT:_cpu_disp_.obj
 0004:00000768       $pdata$__DestructExceptionObject 000000018002e768     libvcruntime:frame.obj
 0004:00000774       $pdata$??0bad_exception@std@@QEAA@AEBV01@@Z 000000018002e774     libvcruntime:frame.obj
 0004:00000780       $pdata$?CatchIt@@YAXPEAUEHExceptionRecord@@PEA_KPEAU_CONTEXT@@PEAU_xDISPATCHER_CONTEXT@@PEBU_s_FuncInfo@@PEBU_s_HandlerType@@PEBU_s_CatchableType@@PEBU_s_TryBlockMapEntry@@H1EE@Z 000000018002e780     libvcruntime:frame.obj
 0004:0000078c       $pdata$?ExFilterRethrow@@YAHPEAU_EXCEPTION_POINTERS@@PEAUEHExceptionRecord@@PEAH@Z 000000018002e78c     libvcruntime:frame.obj
 0004:00000798       $pdata$?FindHandler@@YAXPEAUEHExceptionRecord@@PEA_KPEAU_CONTEXT@@PEAU_xDISPATCHER_CONTEXT@@PEBU_s_FuncInfo@@EH1@Z 000000018002e798     libvcruntime:frame.obj
 0004:000007a4       $pdata$?FindHandlerForForeignException@@YAXPEAUEHExceptionRecord@@PEA_KPEAU_CONTEXT@@PEAU_xDISPATCHER_CONTEXT@@PEBU_s_FuncInfo@@HH1@Z 000000018002e7a4     libvcruntime:frame.obj
 0004:000007b0       $pdata$?IsInExceptionSpec@@YAEPEAUEHExceptionRecord@@PEBU_s_ESTypeList@@@Z 000000018002e7b0     libvcruntime:frame.obj
 0004:000007bc       $pdata$__BuildCatchObject  000000018002e7bc     libvcruntime:frame.obj
 0004:000007c8       $pdata$__BuildCatchObjectHelper 000000018002e7c8     libvcruntime:frame.obj
 0004:000007d4       $pdata$__CxxCallCatchBlock 000000018002e7d4     libvcruntime:frame.obj
 0004:000007e0       $pdata$__FrameUnwindFilter 000000018002e7e0     libvcruntime:frame.obj
 0004:000007ec       $pdata$__FrameUnwindToState 000000018002e7ec     libvcruntime:frame.obj
 0004:000007f8       $pdata$__InternalCxxFrameHandler 000000018002e7f8     libvcruntime:frame.obj
 0004:00000804       $pdata$__TypeMatch         000000018002e804     libvcruntime:frame.obj
 0004:00000810       $pdata$__std_terminate     000000018002e810     libvcruntime:frame.obj
 0004:0000081c       $pdata$_purecall           000000018002e81c     libvcruntime:purevirt.obj
 0004:00000828       $pdata$__std_exception_copy 000000018002e828     libvcruntime:std_exception.obj
 0004:00000834       $pdata$__std_exception_destroy 000000018002e834     libvcruntime:std_exception.obj
 0004:00000840       $pdata$_CxxThrowException  000000018002e840     libvcruntime:throw.obj
 0004:0000084c       $pdata$__C_specific_handler 000000018002e84c     libvcruntime:_chandler_.obj
 0004:00000858       $pdata$__vcrt_initialize   000000018002e858     libvcruntime:initialization.obj
 0004:00000864       $pdata$__vcrt_thread_attach 000000018002e864     libvcruntime:initialization.obj
 0004:00000870       $pdata$__vcrt_thread_detach 000000018002e870     libvcruntime:initialization.obj
 0004:0000087c       $pdata$__vcrt_uninitialize 000000018002e87c     libvcruntime:initialization.obj
 0004:00000888       $pdata$__vcrt_uninitialize_critical 000000018002e888     libvcruntime:initialization.obj
 0004:00000894       $pdata$__std_type_info_destroy_list 000000018002e894     libvcruntime:std_type_info.obj
 0004:000008ac       $pdata$__vcrt_freefls      000000018002e8ac     libvcruntime:per_thread_data.obj
 0004:000008b8       $pdata$__vcrt_freeptd      000000018002e8b8     libvcruntime:per_thread_data.obj
 0004:000008c4       $pdata$__vcrt_getptd       000000018002e8c4     libvcruntime:per_thread_data.obj
 0004:000008d0       $pdata$__vcrt_getptd_noexit 000000018002e8d0     libvcruntime:per_thread_data.obj
 0004:000008dc       $pdata$__vcrt_initialize_ptd 000000018002e8dc     libvcruntime:per_thread_data.obj
 0004:000008e8       $pdata$__vcrt_uninitialize_ptd 000000018002e8e8     libvcruntime:per_thread_data.obj
 0004:000008f4       $pdata$?__GetCurrentState@@YAHPEA_KPEAU_xDISPATCHER_CONTEXT@@PEBU_s_FuncInfo@@@Z 000000018002e8f4     libvcruntime:ehstate.obj
 0004:00000900       $pdata$?__GetUnwindTryBlock@@YAHPEA_KPEAU_xDISPATCHER_CONTEXT@@PEBU_s_FuncInfo@@@Z 000000018002e900     libvcruntime:ehstate.obj
 0004:0000090c       $pdata$?__SetUnwindTryBlock@@YAXPEA_KPEAU_xDISPATCHER_CONTEXT@@PEBU_s_FuncInfo@@H@Z 000000018002e90c     libvcruntime:ehstate.obj
 0004:00000918       $pdata$?__StateFromIp@@YAHPEBU_s_FuncInfo@@PEAU_xDISPATCHER_CONTEXT@@_J@Z 000000018002e918     libvcruntime:ehstate.obj
 0004:00000930       $pdata$?_ExecutionInCatch@@YAHPEAU_xDISPATCHER_CONTEXT@@PEBU_s_FuncInfo@@@Z 000000018002e930     libvcruntime:trnsctrl.obj
 0004:0000093c       $pdata$?_GetEstablisherFrame@@YAPEA_KPEA_KPEAU_xDISPATCHER_CONTEXT@@PEBU_s_FuncInfo@@0@Z 000000018002e93c     libvcruntime:trnsctrl.obj
 0004:00000948       $pdata$?_GetRangeOfTrysToCheck@@YAPEBU_s_TryBlockMapEntry@@PEA_KPEBU_s_FuncInfo@@HHPEAI2PEAU_xDISPATCHER_CONTEXT@@@Z 000000018002e948     libvcruntime:trnsctrl.obj
 0004:00000954       $pdata$?__FrameUnwindToEmptyState@@YAXPEA_KPEAU_xDISPATCHER_CONTEXT@@PEBU_s_FuncInfo@@@Z 000000018002e954     libvcruntime:trnsctrl.obj
 0004:00000960       $pdata$?__SehTransFilter@@YAHPEAU_EXCEPTION_POINTERS@@PEAUEHExceptionRecord@@PEA_KPEAU_CONTEXT@@PEAU_xDISPATCHER_CONTEXT@@PEBU_s_FuncInfo@@PEAH@Z 000000018002e960     libvcruntime:trnsctrl.obj
 0004:0000096c       $pdata$_CallSETranslator   000000018002e96c     libvcruntime:trnsctrl.obj
 0004:00000978       $pdata$_CreateFrameInfo    000000018002e978     libvcruntime:trnsctrl.obj
 0004:00000984       $pdata$_FindAndUnlinkFrame 000000018002e984     libvcruntime:trnsctrl.obj
 0004:00000990       $pdata$_GetImageBase       000000018002e990     libvcruntime:trnsctrl.obj
 0004:0000099c       $pdata$_GetThrowImageBase  000000018002e99c     libvcruntime:trnsctrl.obj
 0004:000009a8       $pdata$_IsExceptionObjectToBeDestroyed 000000018002e9a8     libvcruntime:trnsctrl.obj
 0004:000009b4       $pdata$_SetImageBase       000000018002e9b4     libvcruntime:trnsctrl.obj
 0004:000009c0       $pdata$_SetThrowImageBase  000000018002e9c0     libvcruntime:trnsctrl.obj
 0004:000009cc       $pdata$_UnwindNestedFrames 000000018002e9cc     libvcruntime:trnsctrl.obj
 0004:000009d8       $pdata$__CxxFrameHandler3  000000018002e9d8     libvcruntime:trnsctrl.obj
 0004:00000a14       $pdata$__vcrt_initialize_locks 000000018002ea14     libvcruntime:locks.obj
 0004:00000a20       $pdata$__vcrt_uninitialize_locks 000000018002ea20     libvcruntime:locks.obj
 0004:00000a2c       $pdata$?try_get_function@@YAPEAXW4function_id@?A0x679b24ab@@QEBDQEBW4module_id@2@2@Z 000000018002ea2c     libvcruntime:winapi_downlevel.obj
 0004:00000a38       $pdata$__vcrt_FlsAlloc     000000018002ea38     libvcruntime:winapi_downlevel.obj
 0004:00000a44       $pdata$__vcrt_FlsFree      000000018002ea44     libvcruntime:winapi_downlevel.obj
 0004:00000a50       $pdata$__vcrt_FlsGetValue  000000018002ea50     libvcruntime:winapi_downlevel.obj
 0004:00000a5c       $pdata$__vcrt_FlsSetValue  000000018002ea5c     libvcruntime:winapi_downlevel.obj
 0004:00000a68       $pdata$__vcrt_InitializeCriticalSectionEx 000000018002ea68     libvcruntime:winapi_downlevel.obj
 0004:00000a74       $pdata$__vcrt_uninitialize_winapi_thunks 000000018002ea74     libvcruntime:winapi_downlevel.obj
 0004:00000a80       $pdata$strerror            000000018002ea80     libucrt:strerror.obj
 0004:00000a8c       $pdata$__acrt_call_reportfault 000000018002ea8c     libucrt:invalid_parameter.obj
 0004:00000a98       $pdata$_invalid_parameter  000000018002ea98     libucrt:invalid_parameter.obj
 0004:00000aa4       $pdata$_invalid_parameter_noinfo 000000018002eaa4     libucrt:invalid_parameter.obj
 0004:00000ab0       $pdata$_invalid_parameter_noinfo_noreturn 000000018002eab0     libucrt:invalid_parameter.obj
 0004:00000abc       $pdata$_invoke_watson      000000018002eabc     libucrt:invalid_parameter.obj
 0004:00000ac8       $pdata$??$common_assert_to_message_box@_W@@YAXQEB_W0IQEAX@Z 000000018002eac8     libucrt:assert.obj
 0004:00000ad4       $pdata$??$common_assert_to_message_box_build_string@_W@@YAXQEA_W_KQEB_W2IQEAX@Z 000000018002ead4     libucrt:assert.obj
 0004:00000ae0       $pdata$??$common_assert_to_stderr@_W@@YAXQEB_W0I@Z 000000018002eae0     libucrt:assert.obj
 0004:00000aec       $pdata$_wassert            000000018002eaec     libucrt:assert.obj
 0004:00000af8       $pdata$fwprintf            000000018002eaf8     libucrt:assert.obj
 0004:00000b04       $pdata$swprintf            000000018002eb04     libucrt:assert.obj
 0004:00000b10       $pdata$??0_LocaleUpdate@@QEAA@QEAU__crt_locale_pointers@@@Z 000000018002eb10     libucrt:stricmp.obj
 0004:00000b1c       $pdata$__acrt_errno_map_os_error 000000018002eb1c     libucrt:errno.obj
 0004:00000b28       $pdata$__doserrno          000000018002eb28     libucrt:errno.obj
 0004:00000b34       $pdata$_errno              000000018002eb34     libucrt:errno.obj
 0004:00000b40       $pdata$abort               000000018002eb40     libucrt:abort.obj
 0004:00000b4c       $pdata$__acrt_initialize_stdio 000000018002eb4c     libucrt:_file.obj
 0004:00000b58       $pdata$__acrt_uninitialize_stdio 000000018002eb58     libucrt:_file.obj
 0004:00000b64       $pdata$??$?RV<lambda_7b91131dde12e1c3dfc74ff76b3f2eac>@@AEAV<lambda_dd75445284c072d0bd3768540cc698fa>@@V<lambda_16bc4ecb55b4718497c16bceaea2ceaf>@@@?$__crt_seh_guarded_call@H@@QEAAH$$QEAV<lambda_7b91131dde12e1c3dfc74ff76b3f2eac>@@AEAV<lambda_dd75445284c072d0bd3768540cc698fa>@@$$QEAV<lambda_16bc4ecb55b4718497c16bceaea2ceaf>@@@Z 000000018002eb64     libucrt:output.obj
 0004:00000b70       $pdata$??$?RV<lambda_aa279a7bcb127014629d5b1d62c7325d>@@AEAV<lambda_0a64b6a4deda75c01876f29c44fc5eb3>@@V<lambda_3323e69fbefe9d1a11713e670d47cdfa>@@@?$__crt_seh_guarded_call@H@@QEAAH$$QEAV<lambda_aa279a7bcb127014629d5b1d62c7325d>@@AEAV<lambda_0a64b6a4deda75c01876f29c44fc5eb3>@@$$QEAV<lambda_3323e69fbefe9d1a11713e670d47cdfa>@@@Z 000000018002eb70     libucrt:output.obj
 0004:00000b7c       $pdata$??$ensure_buffer_is_big_enough@D@formatting_buffer@__crt_stdio_output@@QEAA_N_K@Z 000000018002eb7c     libucrt:output.obj
 0004:00000b88       $pdata$??$type_case_integer_parse_into_buffer@I@?$output_processor@_WV?$string_output_adapter@_W@__crt_stdio_output@@V?$standard_base@_WV?$string_output_adapter@_W@__crt_stdio_output@@@2@@__crt_stdio_output@@AEAAXII_N@Z 000000018002eb88     libucrt:output.obj
 0004:00000b88       $pdata$??$type_case_integer_parse_into_buffer@I@?$output_processor@DV?$stream_output_adapter@D@__crt_stdio_output@@V?$standard_base@DV?$stream_output_adapter@D@__crt_stdio_output@@@2@@__crt_stdio_output@@AEAAXII_N@Z 000000018002eb88     libucrt:output.obj
 0004:00000b88       $pdata$??$type_case_integer_parse_into_buffer@I@?$output_processor@_WV?$stream_output_adapter@_W@__crt_stdio_output@@V?$standard_base@_WV?$stream_output_adapter@_W@__crt_stdio_output@@@2@@__crt_stdio_output@@AEAAXII_N@Z 000000018002eb88     libucrt:output.obj
 0004:00000b94       $pdata$??$type_case_integer_parse_into_buffer@_K@?$output_processor@_WV?$stream_output_adapter@_W@__crt_stdio_output@@V?$standard_base@_WV?$stream_output_adapter@_W@__crt_stdio_output@@@2@@__crt_stdio_output@@AEAAX_KI_N@Z 000000018002eb94     libucrt:output.obj
 0004:00000b94       $pdata$??$type_case_integer_parse_into_buffer@_K@?$output_processor@DV?$stream_output_adapter@D@__crt_stdio_output@@V?$standard_base@DV?$stream_output_adapter@D@__crt_stdio_output@@@2@@__crt_stdio_output@@AEAAX_KI_N@Z 000000018002eb94     libucrt:output.obj
 0004:00000b94       $pdata$??$type_case_integer_parse_into_buffer@_K@?$output_processor@_WV?$string_output_adapter@_W@__crt_stdio_output@@V?$standard_base@_WV?$string_output_adapter@_W@__crt_stdio_output@@@2@@__crt_stdio_output@@AEAAX_KI_N@Z 000000018002eb94     libucrt:output.obj
 0004:00000ba0       $pdata$??$write_multiple_characters@V?$stream_output_adapter@D@__crt_stdio_output@@D@__crt_stdio_output@@YAXAEBV?$stream_output_adapter@D@0@DHQEAH@Z 000000018002eba0     libucrt:output.obj
 0004:00000bac       $pdata$??$write_multiple_characters@V?$stream_output_adapter@_W@__crt_stdio_output@@D@__crt_stdio_output@@YAXAEBV?$stream_output_adapter@_W@0@DHQEAH@Z 000000018002ebac     libucrt:output.obj
 0004:00000bb8       $pdata$??$write_multiple_characters@V?$string_output_adapter@_W@__crt_stdio_output@@D@__crt_stdio_output@@YAXAEBV?$string_output_adapter@_W@0@DHQEAH@Z 000000018002ebb8     libucrt:output.obj
 0004:00000bc4       $pdata$??0?$output_processor@DV?$stream_output_adapter@D@__crt_stdio_output@@V?$standard_base@DV?$stream_output_adapter@D@__crt_stdio_output@@@2@@__crt_stdio_output@@QEAA@AEBV?$stream_output_adapter@D@1@_KQEBDQEAU__crt_locale_pointers@@QEAD@Z 000000018002ebc4     libucrt:output.obj
 0004:00000bd0       $pdata$??0?$output_processor@_WV?$string_output_adapter@_W@__crt_stdio_output@@V?$standard_base@_WV?$string_output_adapter@_W@__crt_stdio_output@@@2@@__crt_stdio_output@@QEAA@AEBV?$string_output_adapter@_W@1@_KQEB_WQEAU__crt_locale_pointers@@QEAD@Z 000000018002ebd0     libucrt:output.obj
 0004:00000bd0       $pdata$??0?$output_processor@_WV?$stream_output_adapter@_W@__crt_stdio_output@@V?$standard_base@_WV?$stream_output_adapter@_W@__crt_stdio_output@@@2@@__crt_stdio_output@@QEAA@AEBV?$stream_output_adapter@_W@1@_KQEB_WQEAU__crt_locale_pointers@@QEAD@Z 000000018002ebd0     libucrt:output.obj
 0004:00000bdc       $pdata$??R<lambda_0a64b6a4deda75c01876f29c44fc5eb3>@@QEBAHXZ 000000018002ebdc     libucrt:output.obj
 0004:00000be8       $pdata$??R<lambda_dd75445284c072d0bd3768540cc698fa>@@QEBAHXZ 000000018002ebe8     libucrt:output.obj
 0004:00000bf4       $pdata$?force_decimal_point@__crt_stdio_output@@YAXPEADQEAU__crt_locale_pointers@@@Z 000000018002ebf4     libucrt:output.obj
 0004:00000c00       $pdata$?parse_int_from_format_string@?$output_processor@DV?$stream_output_adapter@D@__crt_stdio_output@@V?$standard_base@DV?$stream_output_adapter@D@__crt_stdio_output@@@2@@__crt_stdio_output@@AEAA_NQEAH@Z 000000018002ec00     libucrt:output.obj
 0004:00000c0c       $pdata$?parse_int_from_format_string@?$output_processor@_WV?$string_output_adapter@_W@__crt_stdio_output@@V?$standard_base@_WV?$string_output_adapter@_W@__crt_stdio_output@@@2@@__crt_stdio_output@@AEAA_NQEAH@Z 000000018002ec0c     libucrt:output.obj
 0004:00000c0c       $pdata$?parse_int_from_format_string@?$output_processor@_WV?$stream_output_adapter@_W@__crt_stdio_output@@V?$standard_base@_WV?$stream_output_adapter@_W@__crt_stdio_output@@@2@@__crt_stdio_output@@AEAA_NQEAH@Z 000000018002ec0c     libucrt:output.obj
 0004:00000c18       $pdata$?process@?$output_processor@DV?$stream_output_adapter@D@__crt_stdio_output@@V?$standard_base@DV?$stream_output_adapter@D@__crt_stdio_output@@@2@@__crt_stdio_output@@QEAAHXZ 000000018002ec18     libucrt:output.obj
 0004:00000c24       $pdata$?process@?$output_processor@_WV?$stream_output_adapter@_W@__crt_stdio_output@@V?$standard_base@_WV?$stream_output_adapter@_W@__crt_stdio_output@@@2@@__crt_stdio_output@@QEAAHXZ 000000018002ec24     libucrt:output.obj
 0004:00000c30       $pdata$?process@?$output_processor@_WV?$string_output_adapter@_W@__crt_stdio_output@@V?$standard_base@_WV?$string_output_adapter@_W@__crt_stdio_output@@@2@@__crt_stdio_output@@QEAAHXZ 000000018002ec30     libucrt:output.obj
 0004:00000c3c       $pdata$?state_case_normal@?$output_processor@DV?$stream_output_adapter@D@__crt_stdio_output@@V?$standard_base@DV?$stream_output_adapter@D@__crt_stdio_output@@@2@@__crt_stdio_output@@AEAA_NXZ 000000018002ec3c     libucrt:output.obj
 0004:00000c48       $pdata$?state_case_normal_tchar@?$output_processor@DV?$stream_output_adapter@D@__crt_stdio_output@@V?$standard_base@DV?$stream_output_adapter@D@__crt_stdio_output@@@2@@__crt_stdio_output@@AEAA_ND@Z 000000018002ec48     libucrt:output.obj
 0004:00000c54       $pdata$?state_case_size@?$output_processor@DV?$stream_output_adapter@D@__crt_stdio_output@@V?$standard_base@DV?$stream_output_adapter@D@__crt_stdio_output@@@2@@__crt_stdio_output@@AEAA_NXZ 000000018002ec54     libucrt:output.obj
 0004:00000c60       $pdata$?state_case_size@?$output_processor@_WV?$stream_output_adapter@_W@__crt_stdio_output@@V?$standard_base@_WV?$stream_output_adapter@_W@__crt_stdio_output@@@2@@__crt_stdio_output@@AEAA_NXZ 000000018002ec60     libucrt:output.obj
 0004:00000c6c       $pdata$?state_case_size@?$output_processor@_WV?$string_output_adapter@_W@__crt_stdio_output@@V?$standard_base@_WV?$string_output_adapter@_W@__crt_stdio_output@@@2@@__crt_stdio_output@@AEAA_NXZ 000000018002ec6c     libucrt:output.obj
 0004:00000c78       $pdata$?state_case_type@?$output_processor@DV?$stream_output_adapter@D@__crt_stdio_output@@V?$standard_base@DV?$stream_output_adapter@D@__crt_stdio_output@@@2@@__crt_stdio_output@@AEAA_NXZ 000000018002ec78     libucrt:output.obj
 0004:00000c84       $pdata$?state_case_type@?$output_processor@_WV?$stream_output_adapter@_W@__crt_stdio_output@@V?$standard_base@_WV?$stream_output_adapter@_W@__crt_stdio_output@@@2@@__crt_stdio_output@@AEAA_NXZ 000000018002ec84     libucrt:output.obj
 0004:00000c90       $pdata$?state_case_type@?$output_processor@_WV?$string_output_adapter@_W@__crt_stdio_output@@V?$standard_base@_WV?$string_output_adapter@_W@__crt_stdio_output@@@2@@__crt_stdio_output@@AEAA_NXZ 000000018002ec90     libucrt:output.obj
 0004:00000c9c       $pdata$?type_case_Z@?$output_processor@DV?$stream_output_adapter@D@__crt_stdio_output@@V?$standard_base@DV?$stream_output_adapter@D@__crt_stdio_output@@@2@@__crt_stdio_output@@AEAA_NXZ 000000018002ec9c     libucrt:output.obj
 0004:00000ca8       $pdata$?type_case_Z@?$output_processor@_WV?$stream_output_adapter@_W@__crt_stdio_output@@V?$standard_base@_WV?$stream_output_adapter@_W@__crt_stdio_output@@@2@@__crt_stdio_output@@AEAA_NXZ 000000018002eca8     libucrt:output.obj
 0004:00000ca8       $pdata$?type_case_Z@?$output_processor@_WV?$string_output_adapter@_W@__crt_stdio_output@@V?$standard_base@_WV?$string_output_adapter@_W@__crt_stdio_output@@@2@@__crt_stdio_output@@AEAA_NXZ 000000018002eca8     libucrt:output.obj
 0004:00000cb4       $pdata$?type_case_a@?$output_processor@DV?$stream_output_adapter@D@__crt_stdio_output@@V?$standard_base@DV?$stream_output_adapter@D@__crt_stdio_output@@@2@@__crt_stdio_output@@AEAA_NXZ 000000018002ecb4     libucrt:output.obj
 0004:00000cc0       $pdata$?type_case_a@?$output_processor@_WV?$stream_output_adapter@_W@__crt_stdio_output@@V?$standard_base@_WV?$stream_output_adapter@_W@__crt_stdio_output@@@2@@__crt_stdio_output@@AEAA_NXZ 000000018002ecc0     libucrt:output.obj
 0004:00000cc0       $pdata$?type_case_a@?$output_processor@_WV?$string_output_adapter@_W@__crt_stdio_output@@V?$standard_base@_WV?$string_output_adapter@_W@__crt_stdio_output@@@2@@__crt_stdio_output@@AEAA_NXZ 000000018002ecc0     libucrt:output.obj
 0004:00000ccc       $pdata$?type_case_c_tchar@?$output_processor@DV?$stream_output_adapter@D@__crt_stdio_output@@V?$standard_base@DV?$stream_output_adapter@D@__crt_stdio_output@@@2@@__crt_stdio_output@@AEAA_ND@Z 000000018002eccc     libucrt:output.obj
 0004:00000cd8       $pdata$?type_case_c_tchar@?$output_processor@_WV?$stream_output_adapter@_W@__crt_stdio_output@@V?$standard_base@_WV?$stream_output_adapter@_W@__crt_stdio_output@@@2@@__crt_stdio_output@@AEAA_N_W@Z 000000018002ecd8     libucrt:output.obj
 0004:00000cd8       $pdata$?type_case_c_tchar@?$output_processor@_WV?$string_output_adapter@_W@__crt_stdio_output@@V?$standard_base@_WV?$string_output_adapter@_W@__crt_stdio_output@@@2@@__crt_stdio_output@@AEAA_N_W@Z 000000018002ecd8     libucrt:output.obj
 0004:00000ce4       $pdata$?type_case_integer@?$output_processor@_WV?$string_output_adapter@_W@__crt_stdio_output@@V?$standard_base@_WV?$string_output_adapter@_W@__crt_stdio_output@@@2@@__crt_stdio_output@@AEAA_NI_N@Z 000000018002ece4     libucrt:output.obj
 0004:00000ce4       $pdata$?type_case_integer@?$output_processor@_WV?$stream_output_adapter@_W@__crt_stdio_output@@V?$standard_base@_WV?$stream_output_adapter@_W@__crt_stdio_output@@@2@@__crt_stdio_output@@AEAA_NI_N@Z 000000018002ece4     libucrt:output.obj
 0004:00000ce4       $pdata$?type_case_integer@?$output_processor@DV?$stream_output_adapter@D@__crt_stdio_output@@V?$standard_base@DV?$stream_output_adapter@D@__crt_stdio_output@@@2@@__crt_stdio_output@@AEAA_NI_N@Z 000000018002ece4     libucrt:output.obj
 0004:00000cf0       $pdata$?type_case_n@?$output_processor@DV?$stream_output_adapter@D@__crt_stdio_output@@V?$standard_base@DV?$stream_output_adapter@D@__crt_stdio_output@@@2@@__crt_stdio_output@@AEAA_NXZ 000000018002ecf0     libucrt:output.obj
 0004:00000cf0       $pdata$?type_case_n@?$output_processor@_WV?$string_output_adapter@_W@__crt_stdio_output@@V?$standard_base@_WV?$string_output_adapter@_W@__crt_stdio_output@@@2@@__crt_stdio_output@@AEAA_NXZ 000000018002ecf0     libucrt:output.obj
 0004:00000cf0       $pdata$?type_case_n@?$output_processor@_WV?$stream_output_adapter@_W@__crt_stdio_output@@V?$standard_base@_WV?$stream_output_adapter@_W@__crt_stdio_output@@@2@@__crt_stdio_output@@AEAA_NXZ 000000018002ecf0     libucrt:output.obj
 0004:00000cfc       $pdata$?type_case_s@?$output_processor@DV?$stream_output_adapter@D@__crt_stdio_output@@V?$standard_base@DV?$stream_output_adapter@D@__crt_stdio_output@@@2@@__crt_stdio_output@@AEAA_NXZ 000000018002ecfc     libucrt:output.obj
 0004:00000d08       $pdata$?type_case_s@?$output_processor@_WV?$string_output_adapter@_W@__crt_stdio_output@@V?$standard_base@_WV?$string_output_adapter@_W@__crt_stdio_output@@@2@@__crt_stdio_output@@AEAA_NXZ 000000018002ed08     libucrt:output.obj
 0004:00000d08       $pdata$?type_case_s@?$output_processor@_WV?$stream_output_adapter@_W@__crt_stdio_output@@V?$standard_base@_WV?$stream_output_adapter@_W@__crt_stdio_output@@@2@@__crt_stdio_output@@AEAA_NXZ 000000018002ed08     libucrt:output.obj
 0004:00000d14       $pdata$?validate_stream_is_ansi_if_required@?$__acrt_stdio_char_traits@D@@SA_NQEAU_iobuf@@@Z 000000018002ed14     libucrt:output.obj
 0004:00000d20       $pdata$?write_stored_string_tchar@?$output_processor@DV?$stream_output_adapter@D@__crt_stdio_output@@V?$standard_base@DV?$stream_output_adapter@D@__crt_stdio_output@@@2@@__crt_stdio_output@@AEAA_ND@Z 000000018002ed20     libucrt:output.obj
 0004:00000d2c       $pdata$?write_stored_string_tchar@?$output_processor@_WV?$stream_output_adapter@_W@__crt_stdio_output@@V?$standard_base@_WV?$stream_output_adapter@_W@__crt_stdio_output@@@2@@__crt_stdio_output@@AEAA_N_W@Z 000000018002ed2c     libucrt:output.obj
 0004:00000d38       $pdata$?write_stored_string_tchar@?$output_processor@_WV?$string_output_adapter@_W@__crt_stdio_output@@V?$standard_base@_WV?$string_output_adapter@_W@__crt_stdio_output@@@2@@__crt_stdio_output@@AEAA_N_W@Z 000000018002ed38     libucrt:output.obj
 0004:00000d44       $pdata$?write_string@?$stream_output_adapter@D@__crt_stdio_output@@QEBAXQEBDHQEAH1@Z 000000018002ed44     libucrt:output.obj
 0004:00000d50       $pdata$?write_string@?$stream_output_adapter@_W@__crt_stdio_output@@QEBAXQEB_WHQEAH1@Z 000000018002ed50     libucrt:output.obj
 0004:00000d5c       $pdata$?write_string@?$string_output_adapter@_W@__crt_stdio_output@@QEBAXQEB_WHQEAH1@Z 000000018002ed5c     libucrt:output.obj
 0004:00000d68       $pdata$__stdio_common_vfprintf 000000018002ed68     libucrt:output.obj
 0004:00000d74       $pdata$__stdio_common_vfwprintf 000000018002ed74     libucrt:output.obj
 0004:00000d80       $pdata$__stdio_common_vswprintf 000000018002ed80     libucrt:output.obj
 0004:00000d8c       $pdata$_callnewh           000000018002ed8c     libucrt:new_handler.obj
 0004:00000d98       $pdata$_query_new_handler  000000018002ed98     libucrt:new_handler.obj
 0004:00000da4       $pdata$_initterm           000000018002eda4     libucrt:initterm.obj
 0004:00000db0       $pdata$_initterm_e         000000018002edb0     libucrt:initterm.obj
 0004:00000dbc       $pdata$_seh_filter_exe     000000018002edbc     libucrt:exception_filter.obj
 0004:00000dc8       $pdata$?common_exit@@YAXHW4_crt_exit_cleanup_mode@@W4_crt_exit_return_mode@@@Z 000000018002edc8     libucrt:exit.obj
 0004:00000dd4       $pdata$?exit_or_terminate_process@@YAXI@Z 000000018002edd4     libucrt:exit.obj
 0004:00000de0       $pdata$?try_cor_exit_process@@YAXI@Z 000000018002ede0     libucrt:exit.obj
 0004:00000dec       $pdata$??$parse_command_line@D@@YAXPEADPEAPEAD0PEA_K2@Z 000000018002edec     libucrt:argv_parsing.obj
 0004:00000df8       $pdata$__acrt_allocate_buffer_for_argv 000000018002edf8     libucrt:argv_parsing.obj
 0004:00000e04       $pdata$_configure_narrow_argv 000000018002ee04     libucrt:argv_parsing.obj
 0004:00000e10       $pdata$??$common_initialize_environment_nolock@D@@YAHXZ 000000018002ee10     libucrt:environment_initialization.obj
 0004:00000e1c       $pdata$??$create_environment@D@@YAQEAPEADQEAD@Z 000000018002ee1c     libucrt:environment_initialization.obj
 0004:00000e28       $pdata$??$free_environment@_W@@YAXQEAPEA_W@Z 000000018002ee28     libucrt:environment_initialization.obj
 0004:00000e28       $pdata$??$free_environment@D@@YAXQEAPEAD@Z 000000018002ee28     libucrt:environment_initialization.obj
 0004:00000e34       $pdata$??$uninitialize_environment_internal@D@@YAXAEAPEAPEAD@Z 000000018002ee34     libucrt:environment_initialization.obj
 0004:00000e40       $pdata$??$uninitialize_environment_internal@_W@@YAXAEAPEAPEA_W@Z 000000018002ee40     libucrt:environment_initialization.obj
 0004:00000e4c       $pdata$__dcrt_uninitialize_environments_nolock 000000018002ee4c     libucrt:environment_initialization.obj
 0004:00000e58       $pdata$??$?RV<lambda_b8c45f8f788dd370798f47cfe8ac3a86>@@AEAV<lambda_4e60a939b0d047cfe11ddc22648dfba9>@@V<lambda_332c3edc96d0294ec56c57d38c1cdfd5>@@@?$__crt_seh_guarded_call@H@@QEAAH$$QEAV<lambda_b8c45f8f788dd370798f47cfe8ac3a86>@@AEAV<lambda_4e60a939b0d047cfe11ddc22648dfba9>@@$$QEAV<lambda_332c3edc96d0294ec56c57d38c1cdfd5>@@@Z 000000018002ee58     libucrt:onexit.obj
 0004:00000e64       $pdata$??$?RV<lambda_e24bbb7b643b32fcea6fa61b31d4c984>@@AEAV<lambda_275893d493268fdec8709772e3fcec0e>@@V<lambda_9d71df4d7cf3f480f8d633942495c3b0>@@@?$__crt_seh_guarded_call@H@@QEAAH$$QEAV<lambda_e24bbb7b643b32fcea6fa61b31d4c984>@@AEAV<lambda_275893d493268fdec8709772e3fcec0e>@@$$QEAV<lambda_9d71df4d7cf3f480f8d633942495c3b0>@@@Z 000000018002ee64     libucrt:onexit.obj
 0004:00000e70       $pdata$??R<lambda_4e60a939b0d047cfe11ddc22648dfba9>@@QEBAHXZ 000000018002ee70     libucrt:onexit.obj
 0004:00000e7c       $pdata$_execute_onexit_table 000000018002ee7c     libucrt:onexit.obj
 0004:00000e88       $pdata$_register_onexit_function 000000018002ee88     libucrt:onexit.obj
 0004:00000e94       $pdata$initialize_c        000000018002ee94     libucrt:initialization.obj
 0004:00000ea0       $pdata$uninitialize_environment 000000018002eea0     libucrt:initialization.obj
 0004:00000eac       $pdata$initialize_pointers 000000018002eeac     libucrt:initialization.obj
 0004:00000eb8       $pdata$uninitialize_allocated_memory 000000018002eeb8     libucrt:initialization.obj
 0004:00000ec4       $pdata$__acrt_thread_attach 000000018002eec4     libucrt:initialization.obj
 0004:00000ed0       $pdata$__acrt_thread_detach 000000018002eed0     libucrt:initialization.obj
 0004:00000edc       $pdata$__acrt_uninitialize_critical 000000018002eedc     libucrt:initialization.obj
 0004:00000ee8       $pdata$terminate           000000018002eee8     libucrt:terminate.obj
 0004:00000ef4       $pdata$strcpy_s            000000018002eef4     libucrt:strcpy_s.obj
 0004:00000f00       $pdata$_free_base          000000018002ef00     libucrt:free_base.obj
 0004:00000f0c       $pdata$_malloc_base        000000018002ef0c     libucrt:malloc_base.obj
 0004:00000f18       $pdata$_calloc_base        000000018002ef18     libucrt:calloc_base.obj
 0004:00000f24       $pdata$??$parse_integer@KV?$c_string_character_source@D@__crt_strtox@@@__crt_strtox@@YAKQEAU__crt_locale_pointers@@V?$c_string_character_source@D@0@H_N@Z 000000018002ef24     libucrt:atox.obj
 0004:00000f30       $pdata$??$parse_integer@KV?$c_string_character_source@_W@__crt_strtox@@@__crt_strtox@@YAKQEAU__crt_locale_pointers@@V?$c_string_character_source@_W@0@H_N@Z 000000018002ef30     libucrt:atox.obj
 0004:00000f3c       $pdata$strncpy_s           000000018002ef3c     libucrt:strncpy_s.obj
 0004:00000f48       $pdata$??$?RV<lambda_46352004c1216016012b18bd6f87e700>@@AEAV<lambda_3bd07e1a1191394380780325891bf33f>@@V<lambda_334532d3f185bcaa59b5be82d7d22bff>@@@?$__crt_seh_guarded_call@X@@QEAAX$$QEAV<lambda_46352004c1216016012b18bd6f87e700>@@AEAV<lambda_3bd07e1a1191394380780325891bf33f>@@$$QEAV<lambda_334532d3f185bcaa59b5be82d7d22bff>@@@Z 000000018002ef48     libucrt:per_thread_data.obj
 0004:00000f54       $pdata$??$?RV<lambda_5e887d1dcbef67a5eb4283622ba103bf>@@AEAV<lambda_4466841279450cc726390878d4a41900>@@V<lambda_341c25c0346d94847f1f3c463c57e077>@@@?$__crt_seh_guarded_call@X@@QEAAX$$QEAV<lambda_5e887d1dcbef67a5eb4283622ba103bf>@@AEAV<lambda_4466841279450cc726390878d4a41900>@@$$QEAV<lambda_341c25c0346d94847f1f3c463c57e077>@@@Z 000000018002ef54     libucrt:per_thread_data.obj
 0004:00000f60       $pdata$??$?RV<lambda_72d1df2b273a38828b1ce30cbf4cdab5>@@AEAV<lambda_876a65b173b8412d3a47c70a915b0cf4>@@V<lambda_41932305e351933ebe8f8be3ed8bb5dc>@@@?$__crt_seh_guarded_call@X@@QEAAX$$QEAV<lambda_72d1df2b273a38828b1ce30cbf4cdab5>@@AEAV<lambda_876a65b173b8412d3a47c70a915b0cf4>@@$$QEAV<lambda_41932305e351933ebe8f8be3ed8bb5dc>@@@Z 000000018002ef60     libucrt:per_thread_data.obj
 0004:00000f6c       $pdata$??$?RV<lambda_fb3a7dec4e47f37f22dae91bb15c9095>@@AEAV<lambda_698284760c8add0bfb0756c19673e34b>@@V<lambda_dfb8eca1e75fef3034a8fb18dd509707>@@@?$__crt_seh_guarded_call@X@@QEAAX$$QEAV<lambda_fb3a7dec4e47f37f22dae91bb15c9095>@@AEAV<lambda_698284760c8add0bfb0756c19673e34b>@@$$QEAV<lambda_dfb8eca1e75fef3034a8fb18dd509707>@@@Z 000000018002ef6c     libucrt:per_thread_data.obj
 0004:00000f78       $pdata$?construct_ptd_array@@YAXQEAU__acrt_ptd@@@Z 000000018002ef78     libucrt:per_thread_data.obj
 0004:00000f84       $pdata$?destroy_fls@@YAXPEAX@Z 000000018002ef84     libucrt:per_thread_data.obj
 0004:00000f90       $pdata$?destroy_ptd_array@@YAXQEAU__acrt_ptd@@@Z 000000018002ef90     libucrt:per_thread_data.obj
 0004:00000f9c       $pdata$?replace_current_thread_locale_nolock@@YAXQEAU__acrt_ptd@@QEAU__crt_locale_data@@@Z 000000018002ef9c     libucrt:per_thread_data.obj
 0004:00000fa8       $pdata$__acrt_freeptd      000000018002efa8     libucrt:per_thread_data.obj
 0004:00000fb4       $pdata$__acrt_getptd       000000018002efb4     libucrt:per_thread_data.obj
 0004:00000fc0       $pdata$__acrt_getptd_noexit 000000018002efc0     libucrt:per_thread_data.obj
 0004:00000fcc       $pdata$__acrt_initialize_ptd 000000018002efcc     libucrt:per_thread_data.obj
 0004:00000fd8       $pdata$__acrt_uninitialize_ptd 000000018002efd8     libucrt:per_thread_data.obj
 0004:00000fe4       $pdata$??$common_xtox@K_W@@YAHKQEA_W_KI_N@Z 000000018002efe4     libucrt:xtoa.obj
 0004:00000ff0       $pdata$??$common_xtox_s@K_W@@YAHKQEA_W_KI_N@Z 000000018002eff0     libucrt:xtoa.obj
 0004:00000ffc       $pdata$_itow_s             000000018002effc     libucrt:xtoa.obj
 0004:00001008       $pdata$_set_error_mode     000000018002f008     libucrt:set_error_mode.obj
 0004:00001014       $pdata$wcscat_s            000000018002f014     libucrt:wcscat_s.obj
 0004:00001020       $pdata$wcscpy_s            000000018002f020     libucrt:wcscpy_s.obj
 0004:0000102c       $pdata$wcsncat_s           000000018002f02c     libucrt:wcsncat_s.obj
 0004:00001038       $pdata$??$message_box_wait_thread@_W@@YAKQEAX@Z 000000018002f038     libucrt:crtmbox.obj
 0004:00001044       $pdata$__acrt_show_wide_message_box 000000018002f044     libucrt:crtmbox.obj
 0004:00001050       $pdata$__acrt_stdio_flush_nolock 000000018002f050     libucrt:fflush.obj
 0004:0000105c       $pdata$_fflush_nolock      000000018002f05c     libucrt:fflush.obj
 0004:00001068       $pdata$common_flush_all    000000018002f068     libucrt:fflush.obj
 0004:00001074       $pdata$fflush              000000018002f074     libucrt:fflush.obj
 0004:00001080       $pdata$??$?RV<lambda_7a5ef57ff966f610505f1d28a3d40618>@@AEAV<lambda_b721fa326cdb32351d23dfa67958c160>@@V<lambda_5e0fb27672408a07956fe59e48ccb2aa>@@@?$__crt_seh_guarded_call@H@@QEAAH$$QEAV<lambda_7a5ef57ff966f610505f1d28a3d40618>@@AEAV<lambda_b721fa326cdb32351d23dfa67958c160>@@$$QEAV<lambda_5e0fb27672408a07956fe59e48ccb2aa>@@@Z 000000018002f080     libucrt:setvbuf.obj
 0004:0000108c       $pdata$??R<lambda_b721fa326cdb32351d23dfa67958c160>@@QEBAHXZ 000000018002f08c     libucrt:setvbuf.obj
 0004:00001098       $pdata$setvbuf             000000018002f098     libucrt:setvbuf.obj
 0004:000010a4       $pdata$??$?RV<lambda_c36588078e9f5dfd39652860aa6b3aaf>@@AEAV<lambda_ec61778202f4f5fc7e7711acc23c3bca>@@V<lambda_dc9d2797ccde5d239b4a0efae8ebd7db>@@@?$__crt_seh_guarded_call@P6AXH@Z@@QEAAP6AXH@Z$$QEAV<lambda_c36588078e9f5dfd39652860aa6b3aaf>@@AEAV<lambda_ec61778202f4f5fc7e7711acc23c3bca>@@$$QEAV<lambda_dc9d2797ccde5d239b4a0efae8ebd7db>@@@Z 000000018002f0a4     libucrt:signal.obj
 0004:000010b0       $pdata$__acrt_get_sigabrt_handler 000000018002f0b0     libucrt:signal.obj
 0004:000010bc       $pdata$raise               000000018002f0bc     libucrt:signal.obj
 0004:000010c8       $pdata$?internal_isupper_l@@YA_NHQEAU__crt_locale_pointers@@@Z 000000018002f0c8     libucrt:tolower_toupper.obj
 0004:000010d4       $pdata$_tolower_l          000000018002f0d4     libucrt:tolower_toupper.obj
 0004:000010e0       $pdata$tolower             000000018002f0e0     libucrt:tolower_toupper.obj
 0004:000010ec       $pdata$__acrt_update_locale_info 000000018002f0ec     libucrt:locale_update.obj
 0004:000010f8       $pdata$__acrt_update_multibyte_info 000000018002f0f8     libucrt:locale_update.obj
 0004:00001104       $pdata$__acrt_uninitialize_locale 000000018002f104     libucrt:wsetlocale.obj
 0004:00001110       $pdata$?try_get_function@@YAPEAXW4function_id@?A0x63058377@@QEBDQEBW4module_id@2@2@Z 000000018002f110     libucrt:winapi_thunks.obj
 0004:0000111c       $pdata$__acrt_FlsAlloc     000000018002f11c     libucrt:winapi_thunks.obj
 0004:00001128       $pdata$__acrt_FlsFree      000000018002f128     libucrt:winapi_thunks.obj
 0004:00001134       $pdata$__acrt_FlsGetValue  000000018002f134     libucrt:winapi_thunks.obj
 0004:00001140       $pdata$__acrt_FlsSetValue  000000018002f140     libucrt:winapi_thunks.obj
 0004:0000114c       $pdata$__acrt_InitializeCriticalSectionEx 000000018002f14c     libucrt:winapi_thunks.obj
 0004:00001158       $pdata$__acrt_LCMapStringEx 000000018002f158     libucrt:winapi_thunks.obj
 0004:00001164       $pdata$__acrt_LocaleNameToLCID 000000018002f164     libucrt:winapi_thunks.obj
 0004:00001170       $pdata$__acrt_MessageBoxW  000000018002f170     libucrt:winapi_thunks.obj
 0004:0000117c       $pdata$__acrt_can_show_message_box 000000018002f17c     libucrt:winapi_thunks.obj
 0004:00001188       $pdata$__acrt_get_parent_window 000000018002f188     libucrt:winapi_thunks.obj
 0004:00001194       $pdata$__acrt_initialize_winapi_thunks 000000018002f194     libucrt:winapi_thunks.obj
 0004:000011a0       $pdata$__acrt_is_interactive 000000018002f1a0     libucrt:winapi_thunks.obj
 0004:000011ac       $pdata$__acrt_is_packaged_app 000000018002f1ac     libucrt:winapi_thunks.obj
 0004:000011b8       $pdata$__acrt_uninitialize_winapi_thunks 000000018002f1b8     libucrt:winapi_thunks.obj
 0004:000011c4       $pdata$_fcloseall          000000018002f1c4     libucrt:closeall.obj
 0004:000011d0       $pdata$__acrt_stdio_free_buffer_nolock 000000018002f1d0     libucrt:_freebuf.obj
 0004:000011dc       $pdata$?initialize_inherited_file_handles_nolock@@YAXXZ 000000018002f1dc     libucrt:ioinit.obj
 0004:000011e8       $pdata$?initialize_stdio_handles_nolock@@YAXXZ 000000018002f1e8     libucrt:ioinit.obj
 0004:000011f4       $pdata$__acrt_initialize_lowio 000000018002f1f4     libucrt:ioinit.obj
 0004:00001200       $pdata$__acrt_uninitialize_lowio 000000018002f200     libucrt:ioinit.obj
 0004:0000120c       $pdata$isdigit             000000018002f20c     libucrt:_ctype.obj
 0004:00001218       $pdata$strtol              000000018002f218     libucrt:strtox.obj
 0004:00001224       $pdata$wcstol              000000018002f224     libucrt:strtox.obj
 0004:00001230       $pdata$_mbtowc_l           000000018002f230     libucrt:mbtowc.obj
 0004:0000123c       $pdata$_wctomb_s_l         000000018002f23c     libucrt:wctomb.obj
 0004:00001248       $pdata$wctomb_s            000000018002f248     libucrt:wctomb.obj
 0004:00001254       $pdata$strnlen             000000018002f254     libucrt:strnlen.obj
 0004:00001260       $pdata$wcsnlen             000000018002f260     libucrt:strnlen.obj
 0004:0000126c       $pdata$?fp_format_a@@YAHQEBNPEAD_KQEAD2H_NIQEAU__crt_locale_pointers@@@Z 000000018002f26c     libucrt:cvt.obj
 0004:00001278       $pdata$?fp_format_e@@YAHQEBNQEAD_K12H_NIQEAU__crt_locale_pointers@@@Z 000000018002f278     libucrt:cvt.obj
 0004:00001284       $pdata$?fp_format_e_internal@@YAHQEAD_KH_NIQEAU_strflt@@2QEAU__crt_locale_pointers@@@Z 000000018002f284     libucrt:cvt.obj
 0004:00001290       $pdata$?fp_format_f_internal@@YAHQEAD_KHQEAU_strflt@@_NQEAU__crt_locale_pointers@@@Z 000000018002f290     libucrt:cvt.obj
 0004:0000129c       $pdata$?fp_format_g@@YAHQEBNQEAD_K12H_NIQEAU__crt_locale_pointers@@@Z 000000018002f29c     libucrt:cvt.obj
 0004:000012a8       $pdata$?fp_format_nan_or_infinity@@YAHW4__acrt_fp_class@@_NPEAD_K1@Z 000000018002f2a8     libucrt:cvt.obj
 0004:000012b4       $pdata$__acrt_fp_format    000000018002f2b4     libucrt:cvt.obj
 0004:000012c0       $pdata$_fputwc_nolock      000000018002f2c0     libucrt:fputwc.obj
 0004:000012cc       $pdata$_fileno             000000018002f2cc     libucrt:fileno.obj
 0004:000012d8       $pdata$__acrt_stdio_begin_temporary_buffering_nolock 000000018002f2d8     libucrt:_sftbuf.obj
 0004:000012e4       $pdata$__acrt_stdio_end_temporary_buffering_nolock 000000018002f2e4     libucrt:_sftbuf.obj
 0004:000012f0       $pdata$__acrt_initialize_locks 000000018002f2f0     libucrt:locks.obj
 0004:000012fc       $pdata$__acrt_uninitialize_locks 000000018002f2fc     libucrt:locks.obj
 0004:00001308       $pdata$??$common_expand_argv_wildcards@D@@YAHQEAPEADQEAPEAPEAD@Z 000000018002f308     libucrt:argv_wildcards.obj
 0004:00001314       $pdata$??$copy_and_add_argument_to_buffer@D@@YAHQEBD0_KAEAV?$argument_list@D@?A0xca0879c4@@@Z 000000018002f314     libucrt:argv_wildcards.obj
 0004:00001320       $pdata$??$expand_argument_wildcards@D@@YAHQEAD0AEAV?$argument_list@D@?A0xca0879c4@@@Z 000000018002f320     libucrt:argv_wildcards.obj
 0004:0000132c       $pdata$?expand_if_necessary@?$argument_list@D@?A0xca0879c4@@AEAAHXZ 000000018002f32c     libucrt:argv_wildcards.obj
 0004:00001338       $pdata$??$?RV<lambda_99476a1ad63dd22509b5d3e65b0ffc95>@@AEAV<lambda_ad1ced32f4ac17aa236e5ef05d6b3b7c>@@V<lambda_f7424dd8d45958661754dc4f2697e9c3>@@@?$__crt_seh_guarded_call@X@@QEAAX$$QEAV<lambda_99476a1ad63dd22509b5d3e65b0ffc95>@@AEAV<lambda_ad1ced32f4ac17aa236e5ef05d6b3b7c>@@$$QEAV<lambda_f7424dd8d45958661754dc4f2697e9c3>@@@Z 000000018002f338     libucrt:mbctype.obj
 0004:00001344       $pdata$??R<lambda_ad1ced32f4ac17aa236e5ef05d6b3b7c>@@QEBAXXZ 000000018002f344     libucrt:mbctype.obj
 0004:00001350       $pdata$?getSystemCP@@YAHH@Z 000000018002f350     libucrt:mbctype.obj
 0004:0000135c       $pdata$?setSBCS@@YAXPEAU__crt_multibyte_data@@@Z 000000018002f35c     libucrt:mbctype.obj
 0004:00001368       $pdata$?setSBUpLow@@YAXPEAU__crt_multibyte_data@@@Z 000000018002f368     libucrt:mbctype.obj
 0004:00001374       $pdata$?setmbcp_internal@@YAHH_N@Z 000000018002f374     libucrt:mbctype.obj
 0004:00001380       $pdata$__acrt_initialize_multibyte 000000018002f380     libucrt:mbctype.obj
 0004:0000138c       $pdata$__acrt_update_thread_multibyte_data 000000018002f38c     libucrt:mbctype.obj
 0004:00001398       $pdata$_setmbcp_nolock     000000018002f398     libucrt:mbctype.obj
 0004:000013a4       $pdata$?x_ismbbtype_l@@YAHPEAU__crt_locale_pointers@@IHH@Z 000000018002f3a4     libucrt:ismbbyte.obj
 0004:000013b0       $pdata$__acrt_initialize_command_line 000000018002f3b0     libucrt:argv_data.obj
 0004:000013bc       $pdata$__dcrt_get_narrow_environment_from_os 000000018002f3bc     libucrt:get_environment_from_os.obj
 0004:000013c8       $pdata$_recalloc_base      000000018002f3c8     libucrt:recalloc.obj
 0004:000013d4       $pdata$__acrt_initialize_heap 000000018002f3d4     libucrt:heap_handle.obj
 0004:000013e0       $pdata$__acrt_execute_initializers 000000018002f3e0     libucrt:shared_initialization.obj
 0004:000013ec       $pdata$__acrt_execute_uninitializers 000000018002f3ec     libucrt:shared_initialization.obj
 0004:000013f8       $pdata$__acrt_invoke_user_matherr 000000018002f3f8     libucrt:matherr.obj
 0004:00001404       $pdata$__pctype_func       000000018002f404     libucrt:ctype.obj
 0004:00001410       $pdata$iswctype            000000018002f410     libucrt:iswctype.obj
 0004:0000141c       $pdata$_isctype_l          000000018002f41c     libucrt:isctype.obj
 0004:00001428       $pdata$_isleadbyte_l       000000018002f428     libucrt:_wctype.obj
 0004:00001434       $pdata$__acrt_free_locale  000000018002f434     libucrt:locale_refcounting.obj
 0004:00001440       $pdata$__acrt_locale_free_lc_time_if_unreferenced 000000018002f440     libucrt:locale_refcounting.obj
 0004:0000144c       $pdata$__acrt_release_locale_ref 000000018002f44c     libucrt:locale_refcounting.obj
 0004:00001458       $pdata$__acrt_update_thread_locale_data 000000018002f458     libucrt:locale_refcounting.obj
 0004:00001464       $pdata$_updatetlocinfoEx_nolock 000000018002f464     libucrt:locale_refcounting.obj
 0004:00001470       $pdata$??$?RV<lambda_b521505b218e5242e90febf6bfebc422>@@AEAV<lambda_6978c1fb23f02e42e1d9e99668cc68aa>@@V<lambda_314360699dd331753a4119843814e9a7>@@@?$__crt_seh_guarded_call@H@@QEAAH$$QEAV<lambda_b521505b218e5242e90febf6bfebc422>@@AEAV<lambda_6978c1fb23f02e42e1d9e99668cc68aa>@@$$QEAV<lambda_314360699dd331753a4119843814e9a7>@@@Z 000000018002f470     libucrt:commit.obj
 0004:0000147c       $pdata$_commit             000000018002f47c     libucrt:commit.obj
 0004:00001488       $pdata$?write_double_translated_ansi_nolock@@YA?AUwrite_result@?A0x9c548279@@HQEBDI@Z 000000018002f488     libucrt:write.obj
 0004:00001494       $pdata$?write_text_ansi_nolock@@YA?AUwrite_result@?A0x9c548279@@HQEBDI@Z 000000018002f494     libucrt:write.obj
 0004:000014a0       $pdata$?write_text_utf16le_nolock@@YA?AUwrite_result@?A0x9c548279@@HQEBDI@Z 000000018002f4a0     libucrt:write.obj
 0004:000014ac       $pdata$?write_text_utf8_nolock@@YA?AUwrite_result@?A0x9c548279@@HQEBDI@Z 000000018002f4ac     libucrt:write.obj
 0004:000014b8       $pdata$_write              000000018002f4b8     libucrt:write.obj
 0004:000014c4       $pdata$_write_nolock       000000018002f4c4     libucrt:write.obj
 0004:000014d0       $pdata$?__acrt_LCMapStringA_stat@@YAHPEAU__crt_locale_pointers@@PEB_WKPEBDHPEADHHH@Z 000000018002f4d0     libucrt:lcmapstringa.obj
 0004:000014dc       $pdata$__acrt_LCMapStringA 000000018002f4dc     libucrt:lcmapstringa.obj
 0004:000014e8       $pdata$__acrt_locale_free_monetary 000000018002f4e8     libucrt:initmon.obj
 0004:000014f4       $pdata$__acrt_locale_free_numeric 000000018002f4f4     libucrt:initnum.obj
 0004:00001500       $pdata$?free_crt_array_internal@@YAXQEAPEBX_K@Z 000000018002f500     libucrt:inittime.obj
 0004:0000150c       $pdata$__acrt_locale_free_time 000000018002f50c     libucrt:inittime.obj
 0004:00001518       $pdata$__acrt_GetStringTypeA 000000018002f518     libucrt:getstringtypea.obj
 0004:00001524       $pdata$?GetTableIndexFromLocaleName@@YAHPEB_W@Z 000000018002f524     libucrt:lcidtoname_downlevel.obj
 0004:00001530       $pdata$__acrt_DownlevelLocaleNameToLCID 000000018002f530     libucrt:lcidtoname_downlevel.obj
 0004:0000153c       $pdata$_fclose_nolock      000000018002f53c     libucrt:fclose.obj
 0004:00001548       $pdata$fclose              000000018002f548     libucrt:fclose.obj
 0004:00001554       $pdata$__acrt_lowio_create_handle_array 000000018002f554     libucrt:osfinfo.obj
 0004:00001560       $pdata$__acrt_lowio_destroy_handle_array 000000018002f560     libucrt:osfinfo.obj
 0004:0000156c       $pdata$__acrt_lowio_ensure_fh_exists 000000018002f56c     libucrt:osfinfo.obj
 0004:00001578       $pdata$_free_osfhnd        000000018002f578     libucrt:osfinfo.obj
 0004:00001584       $pdata$_get_osfhandle      000000018002f584     libucrt:osfinfo.obj
 0004:00001590       $pdata$__acrt_fp_strflt_to_string 000000018002f590     libucrt:_fptostr.obj
 0004:0000159c       $pdata$?divide@__crt_strtox@@YA_KAEAUbig_integer@1@AEBU21@@Z 000000018002f59c     libucrt:cfout.obj
 0004:000015a8       $pdata$5$?divide@__crt_strtox@@YA_KAEAUbig_integer@1@AEBU21@@Z 000000018002f5a8     libucrt:cfout.obj
 0004:000015b4       $pdata$6$?divide@__crt_strtox@@YA_KAEAUbig_integer@1@AEBU21@@Z 000000018002f5b4     libucrt:cfout.obj
 0004:000015c0       $pdata$__acrt_fltout       000000018002f5c0     libucrt:cfout.obj
 0004:000015cc       $pdata$memcpy_s            000000018002f5cc     libucrt:cfout.obj
 0004:000015d8       $pdata$??$write_buffer_nolock@D@@YA_NDV__crt_stdio_stream@@@Z 000000018002f5d8     libucrt:_flsbuf.obj
 0004:000015e4       $pdata$??$write_buffer_nolock@_W@@YA_N_WV__crt_stdio_stream@@@Z 000000018002f5e4     libucrt:_flsbuf.obj
 0004:000015f0       $pdata$__acrt_stdio_flush_and_write_narrow_nolock 000000018002f5f0     libucrt:_flsbuf.obj
 0004:000015fc       $pdata$__acrt_stdio_flush_and_write_wide_nolock 000000018002f5fc     libucrt:_flsbuf.obj
 0004:00001608       $pdata$_isatty             000000018002f608     libucrt:isatty.obj
 0004:00001614       $pdata$?shortsort@@YAXPEAD0_KP6AHPEBX2@Z@Z 000000018002f614     libucrt:qsort.obj
 0004:00001620       $pdata$2$?shortsort@@YAXPEAD0_KP6AHPEBX2@Z@Z 000000018002f620     libucrt:qsort.obj
 0004:0000162c       $pdata$3$?shortsort@@YAXPEAD0_KP6AHPEBX2@Z@Z 000000018002f62c     libucrt:qsort.obj
 0004:00001638       $pdata$qsort               000000018002f638     libucrt:qsort.obj
 0004:00001644       $pdata$4$qsort             000000018002f644     libucrt:qsort.obj
 0004:00001650       $pdata$5$qsort             000000018002f650     libucrt:qsort.obj
 0004:0000165c       $pdata$strpbrk             000000018002f65c     libucrt:strpbrk.obj
 0004:00001668       $pdata$_mbsdec_l           000000018002f668     libucrt:mbsdec.obj
 0004:00001674       $pdata$?initialize_multibyte@@YAHXZ 000000018002f674     libucrt:multibyte_initializer.obj
 0004:00001680       $pdata$_msize              000000018002f680     libucrt:msize.obj
 0004:0000168c       $pdata$_realloc_base       000000018002f68c     libucrt:realloc_base.obj
 0004:00001698       $pdata$??$common_lseek@_J@@YA_JH_JH@Z 000000018002f698     libucrt:lseek.obj
 0004:000016a4       $pdata$??$common_lseek_nolock@_J@@YA_JH_JH@Z 000000018002f6a4     libucrt:lseek.obj
 0004:000016b0       $pdata$_putwch_nolock      000000018002f6b0     libucrt:putwch.obj
 0004:000016bc       $pdata$??$?RV<lambda_bfedae4ebbf01fab1bb6dcc6a9e276e0>@@AEAV<lambda_2fe9b910cf3cbf4a0ab98a02ba45b3ec>@@V<lambda_237c231691f317818eb88cc1d5d642d6>@@@?$__crt_seh_guarded_call@H@@QEAAH$$QEAV<lambda_bfedae4ebbf01fab1bb6dcc6a9e276e0>@@AEAV<lambda_2fe9b910cf3cbf4a0ab98a02ba45b3ec>@@$$QEAV<lambda_237c231691f317818eb88cc1d5d642d6>@@@Z 000000018002f6bc     libucrt:close.obj
 0004:000016c8       $pdata$_close              000000018002f6c8     libucrt:close.obj
 0004:000016d4       $pdata$_close_nolock       000000018002f6d4     libucrt:close.obj
 0004:000016e0       $pdata$fegetenv            000000018002f6e0     libucrt:fegetenv.obj
 0004:000016ec       $pdata$fesetenv            000000018002f6ec     libucrt:fesetenv.obj
 0004:000016f8       $pdata$feholdexcept        000000018002f6f8     libucrt:feholdexcept.obj
 0004:00001710       $pdata$__acrt_stdio_allocate_buffer_nolock 000000018002f710     libucrt:_getbuf.obj
 0004:0000171c       $pdata$__dcrt_lowio_initialize_console_output 000000018002f71c     libucrt:initcon.obj
 0004:00001728       $pdata$__dcrt_terminate_console_output 000000018002f728     libucrt:initcon.obj
 0004:00001734       $pdata$_getfpcontrolword   000000018002f734     libucrt:_fenvutils.obj
 0004:00001740       $pdata$_getfpstatusword    000000018002f740     libucrt:_fenvutils.obj
 0004:0000174c       $pdata$_setfpstatusword    000000018002f74c     libucrt:_fenvutils.obj
 0004:00001758       $pdata$_clearfp            000000018002f758     libucrt:ieee.obj
 0004:00001764       $pdata$common_control87    000000018002f764     libucrt:ieee.obj
 0004:00001770       $pdata$_call_matherr       000000018002f770     libucrt:libm_error.obj
 0004:0000177c       $pdata$_exception_enabled  000000018002f77c     libucrt:libm_error.obj
 0004:00001788       $pdata$_handle_error       000000018002f788     libucrt:libm_error.obj
 0004:00001794       $pdata$__acrt_initialize_fma3 000000018002f794     libucrt:fma3_available.obj
 0004:000017a0       $pdata$_log10_special      000000018002f7a0     libucrt:log_special.obj
 0004:000017ac       $pdata$_log_special_common 000000018002f7ac     libucrt:log_special.obj
 0004:000017c4       $pdata$_raise_exc          000000018002f7c4     libucrt:fpexcept.obj
 0004:000017d0       $pdata$_raise_exc_ex       000000018002f7d0     libucrt:fpexcept.obj
 0004:000017dc       $pdata$_set_errno_from_matherr 000000018002f7dc     libucrt:fpexcept.obj
 0004:000017e8       $pdata$_clrfp              000000018002f7e8     libucrt:fpctrl.obj
 0004:000017f4       $pdata$_ctrlfp             000000018002f7f4     libucrt:fpctrl.obj
 0004:00001800       $pdata$_set_statfp         000000018002f800     libucrt:fpctrl.obj
 0004:0000180c       $pdata$_statfp             000000018002f80c     libucrt:fpctrl.obj
 0004:00001818       $pdata$_IsNonwritableInCurrentImage 000000018002f818     LIBCMT:pesect.obj
 0004:00001824       $pdata$__GSHandlerCheck    000000018002f824     LIBCMT:_gshandler_.obj
 0004:00001830       $pdata$__GSHandlerCheckCommon 000000018002f830     LIBCMT:_gshandler_.obj
 0004:00001854       $pdata$strrchr             000000018002f854     libvcruntime:strrchr.obj
 0004:00001860       $pdata$__GSHandlerCheck_EH 000000018002f860     LIBCMT:gshandlereh.obj
 0004:00001878       $pdata$?dtor$0@?0???0ScryptParamsAsyncWorker@@QEAA@AEBV?$FunctionCallbackInfo@VValue@v8@@@Nan@@@Z@4HA 000000018002f878     scrypt_params_async.obj
 0004:00001884       $pdata$?dtor$0@?0??params@@YAXAEBV?$FunctionCallbackInfo@VValue@v8@@@Nan@@@Z@4HA 000000018002f884     scrypt_params_async.obj
 0004:00001884       $pdata$?dtor$0@?0??kdf@@YAXAEBV?$FunctionCallbackInfo@VValue@v8@@@Nan@@@Z@4HA 000000018002f884     scrypt_kdf_async.obj
 0004:00001890       $pdata$?dtor$0@?0???0ScryptKDFVerifyAsyncWorker@@QEAA@AEBV?$FunctionCallbackInfo@VValue@v8@@@Nan@@@Z@4HA 000000018002f890     scrypt_kdf-verify_async.obj
 0004:00001890       $pdata$?dtor$0@?0???0ScryptKDFAsyncWorker@@QEAA@AEBV?$FunctionCallbackInfo@VValue@v8@@@Nan@@@Z@4HA 000000018002f890     scrypt_kdf_async.obj
 0004:00001890       $pdata$?dtor$0@?0???0ScryptHashAsyncWorker@@QEAA@AEBV?$FunctionCallbackInfo@VValue@v8@@@Nan@@@Z@4HA 000000018002f890     scrypt_hash_async.obj
 0004:0000189c       $pdata$?dtor$0@?0??kdfVerify@@YAXAEBV?$FunctionCallbackInfo@VValue@v8@@@Nan@@@Z@4HA 000000018002f89c     scrypt_kdf-verify_async.obj
 0004:000018a8       $pdata$?dtor$0@?0??hash@@YAXAEBV?$FunctionCallbackInfo@VValue@v8@@@Nan@@@Z@4HA 000000018002f8a8     scrypt_hash_async.obj
 0004:000018b4       $pdata$?fin$0@?0??dllmain_crt_process_attach@@YAHQEAUHINSTANCE__@@QEAX@Z@4HA 000000018002f8b4     LIBCMT:dll_dllmain.obj
 0004:000018c0       $pdata$?fin$0@?0??dllmain_crt_process_detach@@YAH_N@Z@4HA 000000018002f8c0     LIBCMT:dll_dllmain.obj
 0004:000018cc       $pdata$?filt$0@?0??dllmain_dispatch@@YAHQEAUHINSTANCE__@@KQEAX@Z@4HA 000000018002f8cc     LIBCMT:dll_dllmain.obj
 0004:000018d8       $pdata$__scrt_is_nonwritable_in_current_image$filt$0 000000018002f8d8     LIBCMT:utility.obj
 0004:000018e4       $pdata$__CxxCallCatchBlock$filt$0 000000018002f8e4     libvcruntime:frame.obj
 0004:000018f0       $pdata$__CxxCallCatchBlock$fin$1 000000018002f8f0     libvcruntime:frame.obj
 0004:000018fc       $pdata$__DestructExceptionObject$filt$0 000000018002f8fc     libvcruntime:frame.obj
 0004:00001908       $pdata$__FrameUnwindToState$filt$0 000000018002f908     libvcruntime:frame.obj
 0004:00001914       $pdata$__FrameUnwindToState$fin$1 000000018002f914     libvcruntime:frame.obj
 0004:00001920       $pdata$_CallSETranslator$filt$0 000000018002f920     libvcruntime:trnsctrl.obj
 0004:0000192c       $pdata$_query_new_handler$fin$0 000000018002f92c     libucrt:new_handler.obj
 0004:00001938       $pdata$?filt$0@?0??common_exit@@YAXHW4_crt_exit_cleanup_mode@@W4_crt_exit_return_mode@@@Z@4HA 000000018002f938     libucrt:exit.obj
 0004:00001944       $pdata$?fin$1@?0??common_exit@@YAXHW4_crt_exit_cleanup_mode@@W4_crt_exit_return_mode@@@Z@4HA 000000018002f944     libucrt:exit.obj
 0004:00001950       $pdata$?fin$0@?0???$?RV<lambda_e24bbb7b643b32fcea6fa61b31d4c984>@@AEAV<lambda_275893d493268fdec8709772e3fcec0e>@@V<lambda_9d71df4d7cf3f480f8d633942495c3b0>@@@?$__crt_seh_guarded_call@H@@QEAAH$$QEAV<lambda_e24bbb7b643b32fcea6fa61b31d4c984>@@AEAV<lambda_275893d493268fdec8709772e3fcec0e>@@$$QEAV<lambda_9d71df4d7cf3f480f8d633942495c3b0>@@@Z@4HA 000000018002f950     libucrt:onexit.obj
 0004:0000195c       $pdata$common_flush_all$fin$0 000000018002f95c     libucrt:fflush.obj
 0004:00001968       $pdata$common_flush_all$fin$1 000000018002f968     libucrt:fflush.obj
 0004:00001974       $pdata$fflush$fin$0        000000018002f974     libucrt:fflush.obj
 0004:00001974       $pdata$fclose$fin$0        000000018002f974     libucrt:fclose.obj
 0004:00001980       $pdata$?fin$0@?0???$?RV<lambda_7a5ef57ff966f610505f1d28a3d40618>@@AEAV<lambda_b721fa326cdb32351d23dfa67958c160>@@V<lambda_5e0fb27672408a07956fe59e48ccb2aa>@@@?$__crt_seh_guarded_call@H@@QEAAH$$QEAV<lambda_7a5ef57ff966f610505f1d28a3d40618>@@AEAV<lambda_b721fa326cdb32351d23dfa67958c160>@@$$QEAV<lambda_5e0fb27672408a07956fe59e48ccb2aa>@@@Z@4HA 000000018002f980     libucrt:setvbuf.obj
 0004:00001980       $pdata$?fin$0@?0???$?RV<lambda_aa279a7bcb127014629d5b1d62c7325d>@@AEAV<lambda_0a64b6a4deda75c01876f29c44fc5eb3>@@V<lambda_3323e69fbefe9d1a11713e670d47cdfa>@@@?$__crt_seh_guarded_call@H@@QEAAH$$QEAV<lambda_aa279a7bcb127014629d5b1d62c7325d>@@AEAV<lambda_0a64b6a4deda75c01876f29c44fc5eb3>@@$$QEAV<lambda_3323e69fbefe9d1a11713e670d47cdfa>@@@Z@4HA 000000018002f980     libucrt:output.obj
 0004:00001980       $pdata$?fin$0@?0???$?RV<lambda_7b91131dde12e1c3dfc74ff76b3f2eac>@@AEAV<lambda_dd75445284c072d0bd3768540cc698fa>@@V<lambda_16bc4ecb55b4718497c16bceaea2ceaf>@@@?$__crt_seh_guarded_call@H@@QEAAH$$QEAV<lambda_7b91131dde12e1c3dfc74ff76b3f2eac>@@AEAV<lambda_dd75445284c072d0bd3768540cc698fa>@@$$QEAV<lambda_16bc4ecb55b4718497c16bceaea2ceaf>@@@Z@4HA 000000018002f980     libucrt:output.obj
 0004:0000198c       $pdata$raise$fin$0         000000018002f98c     libucrt:signal.obj
 0004:00001998       $pdata$_fcloseall$fin$0    000000018002f998     libucrt:closeall.obj
 0004:000019a4       $pdata$?fin$0@?0???$?RV<lambda_46352004c1216016012b18bd6f87e700>@@AEAV<lambda_3bd07e1a1191394380780325891bf33f>@@V<lambda_334532d3f185bcaa59b5be82d7d22bff>@@@?$__crt_seh_guarded_call@X@@QEAAX$$QEAV<lambda_46352004c1216016012b18bd6f87e700>@@AEAV<lambda_3bd07e1a1191394380780325891bf33f>@@$$QEAV<lambda_334532d3f185bcaa59b5be82d7d22bff>@@@Z@4HA 000000018002f9a4     libucrt:per_thread_data.obj
 0004:000019a4       $pdata$?fin$0@?0???$?RV<lambda_c36588078e9f5dfd39652860aa6b3aaf>@@AEAV<lambda_ec61778202f4f5fc7e7711acc23c3bca>@@V<lambda_dc9d2797ccde5d239b4a0efae8ebd7db>@@@?$__crt_seh_guarded_call@P6AXH@Z@@QEAAP6AXH@Z$$QEAV<lambda_c36588078e9f5dfd39652860aa6b3aaf>@@AEAV<lambda_ec61778202f4f5fc7e7711acc23c3bca>@@$$QEAV<lambda_dc9d2797ccde5d239b4a0efae8ebd7db>@@@Z@4HA 000000018002f9a4     libucrt:signal.obj
 0004:000019a4       $pdata$?fin$0@?0???$?RV<lambda_fb3a7dec4e47f37f22dae91bb15c9095>@@AEAV<lambda_698284760c8add0bfb0756c19673e34b>@@V<lambda_dfb8eca1e75fef3034a8fb18dd509707>@@@?$__crt_seh_guarded_call@X@@QEAAX$$QEAV<lambda_fb3a7dec4e47f37f22dae91bb15c9095>@@AEAV<lambda_698284760c8add0bfb0756c19673e34b>@@$$QEAV<lambda_dfb8eca1e75fef3034a8fb18dd509707>@@@Z@4HA 000000018002f9a4     libucrt:per_thread_data.obj
 0004:000019a4       $pdata$?fin$0@?0???$?RV<lambda_b8c45f8f788dd370798f47cfe8ac3a86>@@AEAV<lambda_4e60a939b0d047cfe11ddc22648dfba9>@@V<lambda_332c3edc96d0294ec56c57d38c1cdfd5>@@@?$__crt_seh_guarded_call@H@@QEAAH$$QEAV<lambda_b8c45f8f788dd370798f47cfe8ac3a86>@@AEAV<lambda_4e60a939b0d047cfe11ddc22648dfba9>@@$$QEAV<lambda_332c3edc96d0294ec56c57d38c1cdfd5>@@@Z@4HA 000000018002f9a4     libucrt:onexit.obj
 0004:000019a4       $pdata$?fin$0@?0???$?RV<lambda_5e887d1dcbef67a5eb4283622ba103bf>@@AEAV<lambda_4466841279450cc726390878d4a41900>@@V<lambda_341c25c0346d94847f1f3c463c57e077>@@@?$__crt_seh_guarded_call@X@@QEAAX$$QEAV<lambda_5e887d1dcbef67a5eb4283622ba103bf>@@AEAV<lambda_4466841279450cc726390878d4a41900>@@$$QEAV<lambda_341c25c0346d94847f1f3c463c57e077>@@@Z@4HA 000000018002f9a4     libucrt:per_thread_data.obj
 0004:000019a4       $pdata$?fin$0@?0???$?RV<lambda_72d1df2b273a38828b1ce30cbf4cdab5>@@AEAV<lambda_876a65b173b8412d3a47c70a915b0cf4>@@V<lambda_41932305e351933ebe8f8be3ed8bb5dc>@@@?$__crt_seh_guarded_call@X@@QEAAX$$QEAV<lambda_72d1df2b273a38828b1ce30cbf4cdab5>@@AEAV<lambda_876a65b173b8412d3a47c70a915b0cf4>@@$$QEAV<lambda_41932305e351933ebe8f8be3ed8bb5dc>@@@Z@4HA 000000018002f9a4     libucrt:per_thread_data.obj
 0004:000019a4       $pdata$?fin$0@?0???$?RV<lambda_99476a1ad63dd22509b5d3e65b0ffc95>@@AEAV<lambda_ad1ced32f4ac17aa236e5ef05d6b3b7c>@@V<lambda_f7424dd8d45958661754dc4f2697e9c3>@@@?$__crt_seh_guarded_call@X@@QEAAX$$QEAV<lambda_99476a1ad63dd22509b5d3e65b0ffc95>@@AEAV<lambda_ad1ced32f4ac17aa236e5ef05d6b3b7c>@@$$QEAV<lambda_f7424dd8d45958661754dc4f2697e9c3>@@@Z@4HA 000000018002f9a4     libucrt:mbctype.obj
 0004:000019b0       $pdata$__acrt_update_thread_multibyte_data$fin$0 000000018002f9b0     libucrt:mbctype.obj
 0004:000019bc       $pdata$__acrt_update_thread_locale_data$fin$0 000000018002f9bc     libucrt:locale_refcounting.obj
 0004:000019bc       $pdata$__acrt_uninitialize_locale$fin$0 000000018002f9bc     libucrt:wsetlocale.obj
 0004:000019c8       $pdata$_write$fin$0        000000018002f9c8     libucrt:write.obj
 0004:000019c8       $pdata$?fin$0@?0???$common_lseek@_J@@YA_JH_JH@Z@4HA 000000018002f9c8     libucrt:lseek.obj
 0004:000019d4       $pdata$__acrt_initialize_lowio$fin$0 000000018002f9d4     libucrt:ioinit.obj
 0004:000019d4       $pdata$__acrt_lowio_ensure_fh_exists$fin$0 000000018002f9d4     libucrt:osfinfo.obj
 0004:000019e0       $pdata$?fin$0@?0???$?RV<lambda_b521505b218e5242e90febf6bfebc422>@@AEAV<lambda_6978c1fb23f02e42e1d9e99668cc68aa>@@V<lambda_314360699dd331753a4119843814e9a7>@@@?$__crt_seh_guarded_call@H@@QEAAH$$QEAV<lambda_b521505b218e5242e90febf6bfebc422>@@AEAV<lambda_6978c1fb23f02e42e1d9e99668cc68aa>@@$$QEAV<lambda_314360699dd331753a4119843814e9a7>@@@Z@4HA 000000018002f9e0     libucrt:commit.obj
 0004:000019e0       $pdata$?fin$0@?0???$?RV<lambda_bfedae4ebbf01fab1bb6dcc6a9e276e0>@@AEAV<lambda_2fe9b910cf3cbf4a0ab98a02ba45b3ec>@@V<lambda_237c231691f317818eb88cc1d5d642d6>@@@?$__crt_seh_guarded_call@H@@QEAAH$$QEAV<lambda_bfedae4ebbf01fab1bb6dcc6a9e276e0>@@AEAV<lambda_2fe9b910cf3cbf4a0ab98a02ba45b3ec>@@$$QEAV<lambda_237c231691f317818eb88cc1d5d642d6>@@@Z@4HA 000000018002f9e0     libucrt:close.obj
 0004:000019ec       $pdata$_ctrlfp$filt$0      000000018002f9ec     libucrt:fpctrl.obj
 0004:000019ec       $pdata$common_control87$filt$0 000000018002f9ec     libucrt:ieee.obj
 0004:000019f8       $pdata$_IsNonwritableInCurrentImage$filt$0 000000018002f9f8     LIBCMT:pesect.obj
 0005:00000000       __guard_fids__             0000000180030000     libucrt:initialization.obj
 0005:00000060       __guard_fids___acrt_initialize_ptd 0000000180030060     libucrt:per_thread_data.obj
 0005:00000064       __guard_fids___acrt_show_wide_message_box 0000000180030064     libucrt:crtmbox.obj
 0005:00000068       __guard_fids__             0000000180030068     libucrt:stdio_initializer.obj
 0005:0000006c       __guard_fids__             000000018003006c     libucrt:stdio_initializer.obj
 0005:00000070       __guard_fids_??$expand_argument_wildcards@D@@YAHQEAD0AEAV?$argument_list@D@?A0xca0879c4@@@Z 0000000180030070     libucrt:argv_wildcards.obj
 0005:00000074       __guard_fids__             0000000180030074     libucrt:locale_initializer.obj
 0005:00000078       __guard_fids__             0000000180030078     libucrt:multibyte_initializer.obj
 0005:0000007c       __guard_fids__             000000018003007c     libucrt:console_output_initializer.obj
 0005:00000080       __guard_fids__             0000000180030080     libucrt:fma3_initializer.obj
 0005:00000084       __guard_fids__             0000000180030084     libcpmt:xthrow.obj
 0005:0000008c       __guard_fids__             000000018003008c     libcpmt:xthrow.obj
 0005:00000094       __guard_fids__             0000000180030094     libcpmt:xthrow.obj
 0005:0000009c       __guard_fids__             000000018003009c     libcpmt:xthrow.obj
 0005:000000a4       __guard_fids__             00000001800300a4     libcpmt:xthrow.obj
 0005:000000ac       __guard_fids_?dllmain_crt_process_attach@@YAHQEAUHINSTANCE__@@QEAX@Z 00000001800300ac     LIBCMT:dll_dllmain.obj
 0005:000000b4       __guard_fids_?dllmain_dispatch@@YAHQEAUHINSTANCE__@@KQEAX@Z 00000001800300b4     LIBCMT:dll_dllmain.obj
 0005:000000b8       __guard_fids__             00000001800300b8     LIBCMT:std_type_info_static.obj
 0005:000000bc       __guard_fids__             00000001800300bc     LIBCMT:throw_bad_alloc.obj
 0005:000000c4       __guard_fids__             00000001800300c4     LIBCMT:guard_support.obj
 0005:000000c8       __guard_fids__             00000001800300c8     libvcruntime:frame.obj
 0005:000000cc       __guard_fids__             00000001800300cc     libvcruntime:frame.obj
 0005:000000d4       __guard_fids___vcrt_initialize_ptd 00000001800300d4     libvcruntime:per_thread_data.obj
 0005:000000d8       __guard_fids__UnwindNestedFrames 00000001800300d8     libvcruntime:trnsctrl.obj
 0006:00000060       $R000000                   0000000180031060     * linker generated manifest res *

 Exports

  ordinal    name

        1    _register_scrypt_
